
RESISTIVE_TOUCH_EXAMPLE2.elf:     file format elf32-littlearm

Sections:
Idx Name          Size      VMA       LMA       File off  Algn
  0 .text         00005c84  00080000  00080000  00010000  2**2
                  CONTENTS, ALLOC, LOAD, READONLY, CODE
  1 .ARM.exidx    00000008  00085c84  00085c84  00015c84  2**2
                  CONTENTS, ALLOC, LOAD, READONLY, DATA
  2 .relocate     000009ac  20000000  00085c8c  00020000  2**3
                  CONTENTS, ALLOC, LOAD, CODE
  3 .bss          00000310  200009ac  00086638  000209ac  2**2
                  ALLOC
  4 .stack        00004000  20080000  20080000  00030000  2**0
                  ALLOC
  5 .ARM.attributes 00000029  00000000  00000000  000209ac  2**0
                  CONTENTS, READONLY
  6 .comment      00000059  00000000  00000000  000209d5  2**0
                  CONTENTS, READONLY
  7 .debug_info   00011880  00000000  00000000  00020a2e  2**0
                  CONTENTS, READONLY, DEBUGGING
  8 .debug_abbrev 00002f28  00000000  00000000  000322ae  2**0
                  CONTENTS, READONLY, DEBUGGING
  9 .debug_loc    000089de  00000000  00000000  000351d6  2**0
                  CONTENTS, READONLY, DEBUGGING
 10 .debug_aranges 00000c60  00000000  00000000  0003dbb4  2**0
                  CONTENTS, READONLY, DEBUGGING
 11 .debug_ranges 00000c80  00000000  00000000  0003e814  2**0
                  CONTENTS, READONLY, DEBUGGING
 12 .debug_macro  00017660  00000000  00000000  0003f494  2**0
                  CONTENTS, READONLY, DEBUGGING
 13 .debug_line   00011662  00000000  00000000  00056af4  2**0
                  CONTENTS, READONLY, DEBUGGING
 14 .debug_str    0005a930  00000000  00000000  00068156  2**0
                  CONTENTS, READONLY, DEBUGGING
 15 .debug_frame  00002918  00000000  00000000  000c2a88  2**2
                  CONTENTS, READONLY, DEBUGGING

Disassembly of section .text:

00080000 <_sfixed>:
   80000:	20084000 	.word	0x20084000
   80004:	00081ed5 	.word	0x00081ed5
   80008:	00081ed1 	.word	0x00081ed1
   8000c:	00081ed1 	.word	0x00081ed1
   80010:	00081ed1 	.word	0x00081ed1
   80014:	00081ed1 	.word	0x00081ed1
   80018:	00081ed1 	.word	0x00081ed1
	...
   8002c:	00081ed1 	.word	0x00081ed1
   80030:	00081ed1 	.word	0x00081ed1
   80034:	00000000 	.word	0x00000000
   80038:	00081ed1 	.word	0x00081ed1
   8003c:	0008025d 	.word	0x0008025d
   80040:	00081ed1 	.word	0x00081ed1
   80044:	00081ed1 	.word	0x00081ed1
   80048:	00081ed1 	.word	0x00081ed1
   8004c:	00081ed1 	.word	0x00081ed1
   80050:	00081ed1 	.word	0x00081ed1
   80054:	00081ed1 	.word	0x00081ed1
   80058:	00081ed1 	.word	0x00081ed1
   8005c:	00081ed1 	.word	0x00081ed1
   80060:	00081ed1 	.word	0x00081ed1
   80064:	00081ed1 	.word	0x00081ed1
   80068:	000817e5 	.word	0x000817e5
   8006c:	000817f9 	.word	0x000817f9
   80070:	0008180d 	.word	0x0008180d
   80074:	00081ed1 	.word	0x00081ed1
   80078:	00081ed1 	.word	0x00081ed1
   8007c:	00081ed1 	.word	0x00081ed1
   80080:	00081ed1 	.word	0x00081ed1
   80084:	00081ed1 	.word	0x00081ed1
   80088:	00081ed1 	.word	0x00081ed1
   8008c:	00081ed1 	.word	0x00081ed1
   80090:	00081ed1 	.word	0x00081ed1
   80094:	00081ed1 	.word	0x00081ed1
   80098:	00081ed1 	.word	0x00081ed1
   8009c:	00081ed1 	.word	0x00081ed1
   800a0:	00081ed1 	.word	0x00081ed1
   800a4:	00081ed1 	.word	0x00081ed1
   800a8:	00081ed1 	.word	0x00081ed1
   800ac:	00081ed1 	.word	0x00081ed1
   800b0:	00081ed1 	.word	0x00081ed1
   800b4:	00081ed1 	.word	0x00081ed1
   800b8:	00081ed1 	.word	0x00081ed1

000800bc <__do_global_dtors_aux>:
   800bc:	b510      	push	{r4, lr}
   800be:	4c05      	ldr	r4, [pc, #20]	; (800d4 <__do_global_dtors_aux+0x18>)
   800c0:	7823      	ldrb	r3, [r4, #0]
   800c2:	b933      	cbnz	r3, 800d2 <__do_global_dtors_aux+0x16>
   800c4:	4b04      	ldr	r3, [pc, #16]	; (800d8 <__do_global_dtors_aux+0x1c>)
   800c6:	b113      	cbz	r3, 800ce <__do_global_dtors_aux+0x12>
   800c8:	4804      	ldr	r0, [pc, #16]	; (800dc <__do_global_dtors_aux+0x20>)
   800ca:	f3af 8000 	nop.w
   800ce:	2301      	movs	r3, #1
   800d0:	7023      	strb	r3, [r4, #0]
   800d2:	bd10      	pop	{r4, pc}
   800d4:	200009ac 	.word	0x200009ac
   800d8:	00000000 	.word	0x00000000
   800dc:	00085c8c 	.word	0x00085c8c

000800e0 <frame_dummy>:
   800e0:	4b08      	ldr	r3, [pc, #32]	; (80104 <frame_dummy+0x24>)
   800e2:	b510      	push	{r4, lr}
   800e4:	b11b      	cbz	r3, 800ee <frame_dummy+0xe>
   800e6:	4908      	ldr	r1, [pc, #32]	; (80108 <frame_dummy+0x28>)
   800e8:	4808      	ldr	r0, [pc, #32]	; (8010c <frame_dummy+0x2c>)
   800ea:	f3af 8000 	nop.w
   800ee:	4808      	ldr	r0, [pc, #32]	; (80110 <frame_dummy+0x30>)
   800f0:	6803      	ldr	r3, [r0, #0]
   800f2:	b903      	cbnz	r3, 800f6 <frame_dummy+0x16>
   800f4:	bd10      	pop	{r4, pc}
   800f6:	4b07      	ldr	r3, [pc, #28]	; (80114 <frame_dummy+0x34>)
   800f8:	2b00      	cmp	r3, #0
   800fa:	d0fb      	beq.n	800f4 <frame_dummy+0x14>
   800fc:	e8bd 4010 	ldmia.w	sp!, {r4, lr}
   80100:	4718      	bx	r3
   80102:	bf00      	nop
   80104:	00000000 	.word	0x00000000
   80108:	200009b0 	.word	0x200009b0
   8010c:	00085c8c 	.word	0x00085c8c
   80110:	00085c8c 	.word	0x00085c8c
   80114:	00000000 	.word	0x00000000

00080118 <usart_serial_getchar>:
 * \param p_usart   Base address of the USART instance.
 * \param data   Data to read
 *
 */
static inline void usart_serial_getchar(usart_if p_usart, uint8_t *data)
{
   80118:	b5f0      	push	{r4, r5, r6, r7, lr}
   8011a:	b083      	sub	sp, #12
   8011c:	4604      	mov	r4, r0
   8011e:	460d      	mov	r5, r1
	uint32_t val = 0;
   80120:	2300      	movs	r3, #0
   80122:	9301      	str	r3, [sp, #4]

	/* Avoid Cppcheck Warning */
	UNUSED(val);

#ifdef UART
	if (UART == (Uart*)p_usart) {
   80124:	4b1f      	ldr	r3, [pc, #124]	; (801a4 <usart_serial_getchar+0x8c>)
   80126:	4298      	cmp	r0, r3
   80128:	d107      	bne.n	8013a <usart_serial_getchar+0x22>
		while (uart_read((Uart*)p_usart, data));
   8012a:	461f      	mov	r7, r3
   8012c:	4e1e      	ldr	r6, [pc, #120]	; (801a8 <usart_serial_getchar+0x90>)
   8012e:	4629      	mov	r1, r5
   80130:	4638      	mov	r0, r7
   80132:	47b0      	blx	r6
   80134:	2800      	cmp	r0, #0
   80136:	d1fa      	bne.n	8012e <usart_serial_getchar+0x16>
   80138:	e019      	b.n	8016e <usart_serial_getchar+0x56>
		while (usart_read(p_usart, &val));
		*data = (uint8_t)(val & 0xFF);
	}
#else
# ifdef USART0
	if (USART0 == p_usart) {
   8013a:	4b1c      	ldr	r3, [pc, #112]	; (801ac <usart_serial_getchar+0x94>)
   8013c:	4298      	cmp	r0, r3
   8013e:	d109      	bne.n	80154 <usart_serial_getchar+0x3c>
		while (usart_read(p_usart, &val));
   80140:	461f      	mov	r7, r3
   80142:	4e1b      	ldr	r6, [pc, #108]	; (801b0 <usart_serial_getchar+0x98>)
   80144:	a901      	add	r1, sp, #4
   80146:	4638      	mov	r0, r7
   80148:	47b0      	blx	r6
   8014a:	2800      	cmp	r0, #0
   8014c:	d1fa      	bne.n	80144 <usart_serial_getchar+0x2c>
		*data = (uint8_t)(val & 0xFF);
   8014e:	9b01      	ldr	r3, [sp, #4]
   80150:	702b      	strb	r3, [r5, #0]
   80152:	e019      	b.n	80188 <usart_serial_getchar+0x70>
	}
# endif
# ifdef USART1
	if (USART1 == p_usart) {
   80154:	4b17      	ldr	r3, [pc, #92]	; (801b4 <usart_serial_getchar+0x9c>)
   80156:	4298      	cmp	r0, r3
   80158:	d109      	bne.n	8016e <usart_serial_getchar+0x56>
		while (usart_read(p_usart, &val));
   8015a:	461e      	mov	r6, r3
   8015c:	4c14      	ldr	r4, [pc, #80]	; (801b0 <usart_serial_getchar+0x98>)
   8015e:	a901      	add	r1, sp, #4
   80160:	4630      	mov	r0, r6
   80162:	47a0      	blx	r4
   80164:	2800      	cmp	r0, #0
   80166:	d1fa      	bne.n	8015e <usart_serial_getchar+0x46>
		*data = (uint8_t)(val & 0xFF);
   80168:	9b01      	ldr	r3, [sp, #4]
   8016a:	702b      	strb	r3, [r5, #0]
   8016c:	e018      	b.n	801a0 <usart_serial_getchar+0x88>
	}
# endif
# ifdef USART2
	if (USART2 == p_usart) {
   8016e:	4b12      	ldr	r3, [pc, #72]	; (801b8 <usart_serial_getchar+0xa0>)
   80170:	429c      	cmp	r4, r3
   80172:	d109      	bne.n	80188 <usart_serial_getchar+0x70>
		while (usart_read(p_usart, &val));
   80174:	461e      	mov	r6, r3
   80176:	4c0e      	ldr	r4, [pc, #56]	; (801b0 <usart_serial_getchar+0x98>)
   80178:	a901      	add	r1, sp, #4
   8017a:	4630      	mov	r0, r6
   8017c:	47a0      	blx	r4
   8017e:	2800      	cmp	r0, #0
   80180:	d1fa      	bne.n	80178 <usart_serial_getchar+0x60>
		*data = (uint8_t)(val & 0xFF);
   80182:	9b01      	ldr	r3, [sp, #4]
   80184:	702b      	strb	r3, [r5, #0]
   80186:	e00b      	b.n	801a0 <usart_serial_getchar+0x88>
	}
# endif
# ifdef USART3
	if (USART3 == p_usart) {
   80188:	4b0c      	ldr	r3, [pc, #48]	; (801bc <usart_serial_getchar+0xa4>)
   8018a:	429c      	cmp	r4, r3
   8018c:	d108      	bne.n	801a0 <usart_serial_getchar+0x88>
		while (usart_read(p_usart, &val));
   8018e:	461e      	mov	r6, r3
   80190:	4c07      	ldr	r4, [pc, #28]	; (801b0 <usart_serial_getchar+0x98>)
   80192:	a901      	add	r1, sp, #4
   80194:	4630      	mov	r0, r6
   80196:	47a0      	blx	r4
   80198:	2800      	cmp	r0, #0
   8019a:	d1fa      	bne.n	80192 <usart_serial_getchar+0x7a>
		*data = (uint8_t)(val & 0xFF);
   8019c:	9b01      	ldr	r3, [sp, #4]
   8019e:	702b      	strb	r3, [r5, #0]
		*data = (uint8_t)(val & 0xFF);
	}
# endif
#endif /* ifdef USART */

}
   801a0:	b003      	add	sp, #12
   801a2:	bdf0      	pop	{r4, r5, r6, r7, pc}
   801a4:	400e0600 	.word	0x400e0600
   801a8:	00081b3d 	.word	0x00081b3d
   801ac:	40090000 	.word	0x40090000
   801b0:	00081b65 	.word	0x00081b65
   801b4:	40094000 	.word	0x40094000
   801b8:	40098000 	.word	0x40098000
   801bc:	4009c000 	.word	0x4009c000

000801c0 <usart_serial_putchar>:
 *   \retval 1  The character was written.
 *   \retval 0  The function timed out before the USART transmitter became
 * ready to send.
 */
static inline int usart_serial_putchar(usart_if p_usart, const uint8_t c)
{
   801c0:	b570      	push	{r4, r5, r6, lr}
   801c2:	460c      	mov	r4, r1
#ifdef UART
	if (UART == (Uart*)p_usart) {
   801c4:	4b1e      	ldr	r3, [pc, #120]	; (80240 <usart_serial_putchar+0x80>)
   801c6:	4298      	cmp	r0, r3
   801c8:	d108      	bne.n	801dc <usart_serial_putchar+0x1c>
		while (uart_write((Uart*)p_usart, c)!=0);
   801ca:	461e      	mov	r6, r3
   801cc:	4d1d      	ldr	r5, [pc, #116]	; (80244 <usart_serial_putchar+0x84>)
   801ce:	4621      	mov	r1, r4
   801d0:	4630      	mov	r0, r6
   801d2:	47a8      	blx	r5
   801d4:	2800      	cmp	r0, #0
   801d6:	d1fa      	bne.n	801ce <usart_serial_putchar+0xe>
		return 1;
   801d8:	2001      	movs	r0, #1
   801da:	bd70      	pop	{r4, r5, r6, pc}
		while (usart_write(p_usart, c)!=0);
		return 1;
	}
#else
# ifdef USART0
	if (USART0 == p_usart) {
   801dc:	4b1a      	ldr	r3, [pc, #104]	; (80248 <usart_serial_putchar+0x88>)
   801de:	4298      	cmp	r0, r3
   801e0:	d108      	bne.n	801f4 <usart_serial_putchar+0x34>
		while (usart_write(p_usart, c)!=0);
   801e2:	461e      	mov	r6, r3
   801e4:	4d19      	ldr	r5, [pc, #100]	; (8024c <usart_serial_putchar+0x8c>)
   801e6:	4621      	mov	r1, r4
   801e8:	4630      	mov	r0, r6
   801ea:	47a8      	blx	r5
   801ec:	2800      	cmp	r0, #0
   801ee:	d1fa      	bne.n	801e6 <usart_serial_putchar+0x26>
		return 1;
   801f0:	2001      	movs	r0, #1
   801f2:	bd70      	pop	{r4, r5, r6, pc}
	}
# endif
# ifdef USART1
	if (USART1 == p_usart) {
   801f4:	4b16      	ldr	r3, [pc, #88]	; (80250 <usart_serial_putchar+0x90>)
   801f6:	4298      	cmp	r0, r3
   801f8:	d108      	bne.n	8020c <usart_serial_putchar+0x4c>
		while (usart_write(p_usart, c)!=0);
   801fa:	461e      	mov	r6, r3
   801fc:	4d13      	ldr	r5, [pc, #76]	; (8024c <usart_serial_putchar+0x8c>)
   801fe:	4621      	mov	r1, r4
   80200:	4630      	mov	r0, r6
   80202:	47a8      	blx	r5
   80204:	2800      	cmp	r0, #0
   80206:	d1fa      	bne.n	801fe <usart_serial_putchar+0x3e>
		return 1;
   80208:	2001      	movs	r0, #1
   8020a:	bd70      	pop	{r4, r5, r6, pc}
	}
# endif
# ifdef USART2
	if (USART2 == p_usart) {
   8020c:	4b11      	ldr	r3, [pc, #68]	; (80254 <usart_serial_putchar+0x94>)
   8020e:	4298      	cmp	r0, r3
   80210:	d108      	bne.n	80224 <usart_serial_putchar+0x64>
		while (usart_write(p_usart, c)!=0);
   80212:	461e      	mov	r6, r3
   80214:	4d0d      	ldr	r5, [pc, #52]	; (8024c <usart_serial_putchar+0x8c>)
   80216:	4621      	mov	r1, r4
   80218:	4630      	mov	r0, r6
   8021a:	47a8      	blx	r5
   8021c:	2800      	cmp	r0, #0
   8021e:	d1fa      	bne.n	80216 <usart_serial_putchar+0x56>
		return 1;
   80220:	2001      	movs	r0, #1
   80222:	bd70      	pop	{r4, r5, r6, pc}
	}
# endif
# ifdef USART3
	if (USART3 == p_usart) {
   80224:	4b0c      	ldr	r3, [pc, #48]	; (80258 <usart_serial_putchar+0x98>)
   80226:	4298      	cmp	r0, r3
   80228:	d108      	bne.n	8023c <usart_serial_putchar+0x7c>
		while (usart_write(p_usart, c)!=0);
   8022a:	461e      	mov	r6, r3
   8022c:	4d07      	ldr	r5, [pc, #28]	; (8024c <usart_serial_putchar+0x8c>)
   8022e:	4621      	mov	r1, r4
   80230:	4630      	mov	r0, r6
   80232:	47a8      	blx	r5
   80234:	2800      	cmp	r0, #0
   80236:	d1fa      	bne.n	8022e <usart_serial_putchar+0x6e>
		return 1;
   80238:	2001      	movs	r0, #1
   8023a:	bd70      	pop	{r4, r5, r6, pc}
		return 1;
	}
# endif
#endif /* ifdef USART */

	return 0;
   8023c:	2000      	movs	r0, #0
}
   8023e:	bd70      	pop	{r4, r5, r6, pc}
   80240:	400e0600 	.word	0x400e0600
   80244:	00081b2d 	.word	0x00081b2d
   80248:	40090000 	.word	0x40090000
   8024c:	00081b51 	.word	0x00081b51
   80250:	40094000 	.word	0x40094000
   80254:	40098000 	.word	0x40098000
   80258:	4009c000 	.word	0x4009c000

0008025c <SysTick_Handler>:

/**
 * \brief Handler for SysTick interrupt. Increments the timestamp counter.
 */
void SysTick_Handler(void)
{
   8025c:	b508      	push	{r3, lr}
	g_ul_tick_count++;
   8025e:	4b08      	ldr	r3, [pc, #32]	; (80280 <SysTick_Handler+0x24>)
   80260:	681a      	ldr	r2, [r3, #0]
   80262:	3201      	adds	r2, #1
   80264:	601a      	str	r2, [r3, #0]

	/* Call TSD_TimerHandler per 10ms */
	if ((g_ul_tick_count % 10) == 0) {
   80266:	681a      	ldr	r2, [r3, #0]
   80268:	4b06      	ldr	r3, [pc, #24]	; (80284 <SysTick_Handler+0x28>)
   8026a:	fba3 1302 	umull	r1, r3, r3, r2
   8026e:	08db      	lsrs	r3, r3, #3
   80270:	eb03 0383 	add.w	r3, r3, r3, lsl #2
   80274:	ebb2 0f43 	cmp.w	r2, r3, lsl #1
   80278:	d101      	bne.n	8027e <SysTick_Handler+0x22>
		rtouch_process();
   8027a:	4b03      	ldr	r3, [pc, #12]	; (80288 <SysTick_Handler+0x2c>)
   8027c:	4798      	blx	r3
   8027e:	bd08      	pop	{r3, pc}
   80280:	200009c8 	.word	0x200009c8
   80284:	cccccccd 	.word	0xcccccccd
   80288:	00081d81 	.word	0x00081d81

0008028c <draw_digit_screen>:
// Operacja
fp operacja = add_operands;


void draw_digit_screen()
{
   8028c:	b510      	push	{r4, lr}
		lcd_set_foreground_color(COLOR_GREEN);
   8028e:	f44f 407f 	mov.w	r0, #65280	; 0xff00
   80292:	4b04      	ldr	r3, [pc, #16]	; (802a4 <draw_digit_screen+0x18>)
   80294:	4798      	blx	r3
		lcd_draw_filled_rectangle(8, 8, 232, 66);
   80296:	2342      	movs	r3, #66	; 0x42
   80298:	22e8      	movs	r2, #232	; 0xe8
   8029a:	2108      	movs	r1, #8
   8029c:	4608      	mov	r0, r1
   8029e:	4c02      	ldr	r4, [pc, #8]	; (802a8 <draw_digit_screen+0x1c>)
   802a0:	47a0      	blx	r4
   802a2:	bd10      	pop	{r4, pc}
   802a4:	00080e0d 	.word	0x00080e0d
   802a8:	00081131 	.word	0x00081131

000802ac <draw_button_strings>:
}

void draw_button_strings() {
   802ac:	b510      	push	{r4, lr}
		lcd_set_foreground_color(COLOR_GREEN);
   802ae:	f44f 407f 	mov.w	r0, #65280	; 0xff00
   802b2:	4b24      	ldr	r3, [pc, #144]	; (80344 <draw_button_strings+0x98>)
   802b4:	4798      	blx	r3
		lcd_draw_string(26, 108, "7");
   802b6:	4a24      	ldr	r2, [pc, #144]	; (80348 <draw_button_strings+0x9c>)
   802b8:	216c      	movs	r1, #108	; 0x6c
   802ba:	201a      	movs	r0, #26
   802bc:	4c23      	ldr	r4, [pc, #140]	; (8034c <draw_button_strings+0xa0>)
   802be:	47a0      	blx	r4
		lcd_draw_string(84, 108, "8");
   802c0:	4a23      	ldr	r2, [pc, #140]	; (80350 <draw_button_strings+0xa4>)
   802c2:	216c      	movs	r1, #108	; 0x6c
   802c4:	2054      	movs	r0, #84	; 0x54
   802c6:	47a0      	blx	r4
		lcd_draw_string(142, 108, "9");
   802c8:	4a22      	ldr	r2, [pc, #136]	; (80354 <draw_button_strings+0xa8>)
   802ca:	216c      	movs	r1, #108	; 0x6c
   802cc:	208e      	movs	r0, #142	; 0x8e
   802ce:	47a0      	blx	r4
		lcd_draw_string(200, 108, "X");
   802d0:	4a21      	ldr	r2, [pc, #132]	; (80358 <draw_button_strings+0xac>)
   802d2:	216c      	movs	r1, #108	; 0x6c
   802d4:	20c8      	movs	r0, #200	; 0xc8
   802d6:	47a0      	blx	r4
		
		lcd_draw_string(26, 166, "4");
   802d8:	4a20      	ldr	r2, [pc, #128]	; (8035c <draw_button_strings+0xb0>)
   802da:	21a6      	movs	r1, #166	; 0xa6
   802dc:	201a      	movs	r0, #26
   802de:	47a0      	blx	r4
		lcd_draw_string(84, 166, "5");
   802e0:	4a1f      	ldr	r2, [pc, #124]	; (80360 <draw_button_strings+0xb4>)
   802e2:	21a6      	movs	r1, #166	; 0xa6
   802e4:	2054      	movs	r0, #84	; 0x54
   802e6:	47a0      	blx	r4
		lcd_draw_string(142, 166, "6");
   802e8:	4a1e      	ldr	r2, [pc, #120]	; (80364 <draw_button_strings+0xb8>)
   802ea:	21a6      	movs	r1, #166	; 0xa6
   802ec:	208e      	movs	r0, #142	; 0x8e
   802ee:	47a0      	blx	r4
		lcd_draw_string(200, 166, "/");
   802f0:	4a1d      	ldr	r2, [pc, #116]	; (80368 <draw_button_strings+0xbc>)
   802f2:	21a6      	movs	r1, #166	; 0xa6
   802f4:	20c8      	movs	r0, #200	; 0xc8
   802f6:	47a0      	blx	r4
		
		lcd_draw_string(26, 224, "1");
   802f8:	4a1c      	ldr	r2, [pc, #112]	; (8036c <draw_button_strings+0xc0>)
   802fa:	21e0      	movs	r1, #224	; 0xe0
   802fc:	201a      	movs	r0, #26
   802fe:	47a0      	blx	r4
		lcd_draw_string(84, 224, "2");
   80300:	4a1b      	ldr	r2, [pc, #108]	; (80370 <draw_button_strings+0xc4>)
   80302:	21e0      	movs	r1, #224	; 0xe0
   80304:	2054      	movs	r0, #84	; 0x54
   80306:	47a0      	blx	r4
		lcd_draw_string(142, 224, "3");
   80308:	4a1a      	ldr	r2, [pc, #104]	; (80374 <draw_button_strings+0xc8>)
   8030a:	21e0      	movs	r1, #224	; 0xe0
   8030c:	208e      	movs	r0, #142	; 0x8e
   8030e:	47a0      	blx	r4
		lcd_draw_string(200, 224, "-");
   80310:	4a19      	ldr	r2, [pc, #100]	; (80378 <draw_button_strings+0xcc>)
   80312:	21e0      	movs	r1, #224	; 0xe0
   80314:	20c8      	movs	r0, #200	; 0xc8
   80316:	47a0      	blx	r4

		lcd_draw_string(26, 282, "C");
   80318:	4a18      	ldr	r2, [pc, #96]	; (8037c <draw_button_strings+0xd0>)
   8031a:	f44f 718d 	mov.w	r1, #282	; 0x11a
   8031e:	201a      	movs	r0, #26
   80320:	47a0      	blx	r4
		lcd_draw_string(84, 282, "0");
   80322:	4a17      	ldr	r2, [pc, #92]	; (80380 <draw_button_strings+0xd4>)
   80324:	f44f 718d 	mov.w	r1, #282	; 0x11a
   80328:	2054      	movs	r0, #84	; 0x54
   8032a:	47a0      	blx	r4
		lcd_draw_string(142, 282, "=");
   8032c:	4a15      	ldr	r2, [pc, #84]	; (80384 <draw_button_strings+0xd8>)
   8032e:	f44f 718d 	mov.w	r1, #282	; 0x11a
   80332:	208e      	movs	r0, #142	; 0x8e
   80334:	47a0      	blx	r4
		lcd_draw_string(200, 282, "+");
   80336:	4a14      	ldr	r2, [pc, #80]	; (80388 <draw_button_strings+0xdc>)
   80338:	f44f 718d 	mov.w	r1, #282	; 0x11a
   8033c:	20c8      	movs	r0, #200	; 0xc8
   8033e:	47a0      	blx	r4
   80340:	bd10      	pop	{r4, pc}
   80342:	bf00      	nop
   80344:	00080e0d 	.word	0x00080e0d
   80348:	00085254 	.word	0x00085254
   8034c:	000811e9 	.word	0x000811e9
   80350:	00085258 	.word	0x00085258
   80354:	0008525c 	.word	0x0008525c
   80358:	00085260 	.word	0x00085260
   8035c:	00085264 	.word	0x00085264
   80360:	00085268 	.word	0x00085268
   80364:	0008526c 	.word	0x0008526c
   80368:	00085270 	.word	0x00085270
   8036c:	00085274 	.word	0x00085274
   80370:	00085278 	.word	0x00085278
   80374:	0008527c 	.word	0x0008527c
   80378:	00085280 	.word	0x00085280
   8037c:	00085284 	.word	0x00085284
   80380:	00085288 	.word	0x00085288
   80384:	0008528c 	.word	0x0008528c
   80388:	00085290 	.word	0x00085290

0008038c <draw_buttons>:
}

void draw_buttons() {
   8038c:	b538      	push	{r3, r4, r5, lr}
		lcd_set_foreground_color(COLOR_BLUE);
   8038e:	20ff      	movs	r0, #255	; 0xff
   80390:	4d30      	ldr	r5, [pc, #192]	; (80454 <draw_buttons+0xc8>)
   80392:	47a8      	blx	r5
		lcd_draw_filled_rectangle(8, 90, 58, 140);
   80394:	238c      	movs	r3, #140	; 0x8c
   80396:	223a      	movs	r2, #58	; 0x3a
   80398:	215a      	movs	r1, #90	; 0x5a
   8039a:	2008      	movs	r0, #8
   8039c:	4c2e      	ldr	r4, [pc, #184]	; (80458 <draw_buttons+0xcc>)
   8039e:	47a0      	blx	r4
		lcd_draw_filled_rectangle(66, 90, 116, 140);
   803a0:	238c      	movs	r3, #140	; 0x8c
   803a2:	2274      	movs	r2, #116	; 0x74
   803a4:	215a      	movs	r1, #90	; 0x5a
   803a6:	2042      	movs	r0, #66	; 0x42
   803a8:	47a0      	blx	r4
		lcd_draw_filled_rectangle(124, 90, 174, 140);
   803aa:	238c      	movs	r3, #140	; 0x8c
   803ac:	22ae      	movs	r2, #174	; 0xae
   803ae:	215a      	movs	r1, #90	; 0x5a
   803b0:	207c      	movs	r0, #124	; 0x7c
   803b2:	47a0      	blx	r4
		
		lcd_draw_filled_rectangle(8, 148, 58, 198);
   803b4:	23c6      	movs	r3, #198	; 0xc6
   803b6:	223a      	movs	r2, #58	; 0x3a
   803b8:	2194      	movs	r1, #148	; 0x94
   803ba:	2008      	movs	r0, #8
   803bc:	47a0      	blx	r4
		lcd_draw_filled_rectangle(66, 148, 116, 198);
   803be:	23c6      	movs	r3, #198	; 0xc6
   803c0:	2274      	movs	r2, #116	; 0x74
   803c2:	2194      	movs	r1, #148	; 0x94
   803c4:	2042      	movs	r0, #66	; 0x42
   803c6:	47a0      	blx	r4
		lcd_draw_filled_rectangle(124, 148, 174, 198);
   803c8:	23c6      	movs	r3, #198	; 0xc6
   803ca:	22ae      	movs	r2, #174	; 0xae
   803cc:	2194      	movs	r1, #148	; 0x94
   803ce:	207c      	movs	r0, #124	; 0x7c
   803d0:	47a0      	blx	r4

		lcd_draw_filled_rectangle(8, 206, 58, 256);
   803d2:	f44f 7380 	mov.w	r3, #256	; 0x100
   803d6:	223a      	movs	r2, #58	; 0x3a
   803d8:	21ce      	movs	r1, #206	; 0xce
   803da:	2008      	movs	r0, #8
   803dc:	47a0      	blx	r4
		lcd_draw_filled_rectangle(66, 206, 116, 256);
   803de:	f44f 7380 	mov.w	r3, #256	; 0x100
   803e2:	2274      	movs	r2, #116	; 0x74
   803e4:	21ce      	movs	r1, #206	; 0xce
   803e6:	2042      	movs	r0, #66	; 0x42
   803e8:	47a0      	blx	r4
		lcd_draw_filled_rectangle(124, 206, 174, 256);
   803ea:	f44f 7380 	mov.w	r3, #256	; 0x100
   803ee:	22ae      	movs	r2, #174	; 0xae
   803f0:	21ce      	movs	r1, #206	; 0xce
   803f2:	207c      	movs	r0, #124	; 0x7c
   803f4:	47a0      	blx	r4
		
		lcd_draw_filled_rectangle(66, 264, 116, 314);
   803f6:	f44f 739d 	mov.w	r3, #314	; 0x13a
   803fa:	2274      	movs	r2, #116	; 0x74
   803fc:	f44f 7184 	mov.w	r1, #264	; 0x108
   80400:	2042      	movs	r0, #66	; 0x42
   80402:	47a0      	blx	r4
		
		lcd_set_foreground_color(COLOR_RED);
   80404:	2000      	movs	r0, #0
   80406:	47a8      	blx	r5
		lcd_draw_filled_rectangle(182, 90, 232, 140);
   80408:	238c      	movs	r3, #140	; 0x8c
   8040a:	22e8      	movs	r2, #232	; 0xe8
   8040c:	215a      	movs	r1, #90	; 0x5a
   8040e:	20b6      	movs	r0, #182	; 0xb6
   80410:	47a0      	blx	r4
		lcd_draw_filled_rectangle(182, 148, 232, 198);
   80412:	23c6      	movs	r3, #198	; 0xc6
   80414:	22e8      	movs	r2, #232	; 0xe8
   80416:	2194      	movs	r1, #148	; 0x94
   80418:	20b6      	movs	r0, #182	; 0xb6
   8041a:	47a0      	blx	r4
		lcd_draw_filled_rectangle(182, 206, 232, 256);
   8041c:	f44f 7380 	mov.w	r3, #256	; 0x100
   80420:	22e8      	movs	r2, #232	; 0xe8
   80422:	21ce      	movs	r1, #206	; 0xce
   80424:	20b6      	movs	r0, #182	; 0xb6
   80426:	47a0      	blx	r4
		lcd_draw_filled_rectangle(182, 264, 232, 314);
   80428:	f44f 739d 	mov.w	r3, #314	; 0x13a
   8042c:	22e8      	movs	r2, #232	; 0xe8
   8042e:	f44f 7184 	mov.w	r1, #264	; 0x108
   80432:	20b6      	movs	r0, #182	; 0xb6
   80434:	47a0      	blx	r4
		lcd_draw_filled_rectangle(124, 264, 174, 314);
   80436:	f44f 739d 	mov.w	r3, #314	; 0x13a
   8043a:	22ae      	movs	r2, #174	; 0xae
   8043c:	f44f 7184 	mov.w	r1, #264	; 0x108
   80440:	207c      	movs	r0, #124	; 0x7c
   80442:	47a0      	blx	r4
		lcd_draw_filled_rectangle(8, 264, 58, 314);
   80444:	f44f 739d 	mov.w	r3, #314	; 0x13a
   80448:	223a      	movs	r2, #58	; 0x3a
   8044a:	f44f 7184 	mov.w	r1, #264	; 0x108
   8044e:	2008      	movs	r0, #8
   80450:	47a0      	blx	r4
   80452:	bd38      	pop	{r3, r4, r5, pc}
   80454:	00080e0d 	.word	0x00080e0d
   80458:	00081131 	.word	0x00081131

0008045c <drawScene>:

		
}

void drawScene()
{
   8045c:	b510      	push	{r4, lr}
	lcd_set_foreground_color(COLOR_GREEN);
   8045e:	f44f 407f 	mov.w	r0, #65280	; 0xff00
   80462:	4b08      	ldr	r3, [pc, #32]	; (80484 <drawScene+0x28>)
   80464:	4798      	blx	r3
	lcd_draw_filled_rectangle(0, 0, 239, 319);
   80466:	f240 133f 	movw	r3, #319	; 0x13f
   8046a:	22ef      	movs	r2, #239	; 0xef
   8046c:	2100      	movs	r1, #0
   8046e:	4608      	mov	r0, r1
   80470:	4c05      	ldr	r4, [pc, #20]	; (80488 <drawScene+0x2c>)
   80472:	47a0      	blx	r4

	draw_digit_screen();
   80474:	4b05      	ldr	r3, [pc, #20]	; (8048c <drawScene+0x30>)
   80476:	4798      	blx	r3
	draw_buttons();
   80478:	4b05      	ldr	r3, [pc, #20]	; (80490 <drawScene+0x34>)
   8047a:	4798      	blx	r3
	draw_button_strings();
   8047c:	4b05      	ldr	r3, [pc, #20]	; (80494 <drawScene+0x38>)
   8047e:	4798      	blx	r3
   80480:	bd10      	pop	{r4, pc}
   80482:	bf00      	nop
   80484:	00080e0d 	.word	0x00080e0d
   80488:	00081131 	.word	0x00081131
   8048c:	0008028d 	.word	0x0008028d
   80490:	0008038d 	.word	0x0008038d
   80494:	000802ad 	.word	0x000802ad

00080498 <add_to_calc>:
	
}

void add_to_calc(int digit) {
	switch(calculator_state) {
   80498:	4b0a      	ldr	r3, [pc, #40]	; (804c4 <add_to_calc+0x2c>)
   8049a:	681b      	ldr	r3, [r3, #0]
   8049c:	b113      	cbz	r3, 804a4 <add_to_calc+0xc>
   8049e:	2b01      	cmp	r3, #1
   804a0:	d008      	beq.n	804b4 <add_to_calc+0x1c>
   804a2:	4770      	bx	lr
		case 0:
			op1 = op1 * 10 + digit;
   804a4:	4a08      	ldr	r2, [pc, #32]	; (804c8 <add_to_calc+0x30>)
   804a6:	6813      	ldr	r3, [r2, #0]
   804a8:	eb03 0383 	add.w	r3, r3, r3, lsl #2
   804ac:	eb00 0043 	add.w	r0, r0, r3, lsl #1
   804b0:	6010      	str	r0, [r2, #0]
		break;
   804b2:	4770      	bx	lr
		
		case 1:
			op2 = op2 * 10 + digit;
   804b4:	4a05      	ldr	r2, [pc, #20]	; (804cc <add_to_calc+0x34>)
   804b6:	6813      	ldr	r3, [r2, #0]
   804b8:	eb03 0383 	add.w	r3, r3, r3, lsl #2
   804bc:	eb00 0043 	add.w	r0, r0, r3, lsl #1
   804c0:	6010      	str	r0, [r2, #0]
   804c2:	4770      	bx	lr
   804c4:	200009d4 	.word	0x200009d4
   804c8:	200009cc 	.word	0x200009cc
   804cc:	200009d0 	.word	0x200009d0

000804d0 <calc>:
	}
}

void calc() {
	
	switch(calculator_mode) {
   804d0:	4b17      	ldr	r3, [pc, #92]	; (80530 <calc+0x60>)
   804d2:	681b      	ldr	r3, [r3, #0]
   804d4:	3b01      	subs	r3, #1
   804d6:	2b03      	cmp	r3, #3
   804d8:	d829      	bhi.n	8052e <calc+0x5e>
   804da:	e8df f003 	tbb	[pc, r3]
   804de:	0b02      	.short	0x0b02
   804e0:	1f15      	.short	0x1f15
		case 1:
			op1 = asm_add(op1, op2);
   804e2:	4914      	ldr	r1, [pc, #80]	; (80534 <calc+0x64>)


int asm_add(int i, int j)
{
	int res = 0;
	__asm ("ADD %[result], %[input_i], %[input_j]"
   804e4:	680b      	ldr	r3, [r1, #0]
   804e6:	4a14      	ldr	r2, [pc, #80]	; (80538 <calc+0x68>)
   804e8:	6810      	ldr	r0, [r2, #0]
   804ea:	4403      	add	r3, r0
   804ec:	600b      	str	r3, [r1, #0]
			op2 = 0;
   804ee:	2300      	movs	r3, #0
   804f0:	6013      	str	r3, [r2, #0]
		break;
   804f2:	4770      	bx	lr
		
		case 2:
		    op1 = asm_sub(op1, op2);
   804f4:	490f      	ldr	r1, [pc, #60]	; (80534 <calc+0x64>)
}

int asm_sub(int i, int j)
{
	int res = 0;
	__asm ("SUB %[result], %[input_i], %[input_j]"
   804f6:	680b      	ldr	r3, [r1, #0]
   804f8:	4a0f      	ldr	r2, [pc, #60]	; (80538 <calc+0x68>)
   804fa:	6810      	ldr	r0, [r2, #0]
   804fc:	eba3 0300 	sub.w	r3, r3, r0
   80500:	600b      	str	r3, [r1, #0]
			op2 = 0;
   80502:	2300      	movs	r3, #0
   80504:	6013      	str	r3, [r2, #0]
		break;
   80506:	4770      	bx	lr
		
		case 3:
		    op1 = asm_mul(op1, op2);
   80508:	490a      	ldr	r1, [pc, #40]	; (80534 <calc+0x64>)
}

int asm_mul(int i, int j)
{
	int res = 0;
	__asm ("MUL %[result], %[input_i], %[input_j]"
   8050a:	680b      	ldr	r3, [r1, #0]
   8050c:	4a0a      	ldr	r2, [pc, #40]	; (80538 <calc+0x68>)
   8050e:	6810      	ldr	r0, [r2, #0]
   80510:	fb03 f300 	mul.w	r3, r3, r0
   80514:	600b      	str	r3, [r1, #0]
			op2 = 0;		
   80516:	2300      	movs	r3, #0
   80518:	6013      	str	r3, [r2, #0]
		break;
   8051a:	4770      	bx	lr
		
		case 4:
		    op1 = asm_div(op1, op2);
   8051c:	4905      	ldr	r1, [pc, #20]	; (80534 <calc+0x64>)
}

int asm_div(int i, int j)
{
	int res = 0;
	__asm ("SDIV %[result], %[input_i], %[input_j]"
   8051e:	680b      	ldr	r3, [r1, #0]
   80520:	4a05      	ldr	r2, [pc, #20]	; (80538 <calc+0x68>)
   80522:	6810      	ldr	r0, [r2, #0]
   80524:	fb93 f3f0 	sdiv	r3, r3, r0
   80528:	600b      	str	r3, [r1, #0]
			op2 = 0;
   8052a:	2300      	movs	r3, #0
   8052c:	6013      	str	r3, [r2, #0]
   8052e:	4770      	bx	lr
   80530:	20000118 	.word	0x20000118
   80534:	200009cc 	.word	0x200009cc
   80538:	200009d0 	.word	0x200009d0

0008053c <button_event_handler>:
		break;
	}
}

void button_event_handler(int number)
{
   8053c:	b508      	push	{r3, lr}
	switch(number) 
   8053e:	280f      	cmp	r0, #15
   80540:	d85f      	bhi.n	80602 <button_event_handler+0xc6>
   80542:	e8df f000 	tbb	[pc, r0]
   80546:	0c08      	.short	0x0c08
   80548:	1f1b1410 	.word	0x1f1b1410
   8054c:	322e2723 	.word	0x322e2723
   80550:	4c413a36 	.word	0x4c413a36
   80554:	5950      	.short	0x5950
	{
		case 0:
			add_to_calc(7);
   80556:	2007      	movs	r0, #7
   80558:	4b2a      	ldr	r3, [pc, #168]	; (80604 <button_event_handler+0xc8>)
   8055a:	4798      	blx	r3
			break;
   8055c:	bd08      	pop	{r3, pc}
		case 1:
			add_to_calc(8);
   8055e:	2008      	movs	r0, #8
   80560:	4b28      	ldr	r3, [pc, #160]	; (80604 <button_event_handler+0xc8>)
   80562:	4798      	blx	r3
			break;
   80564:	bd08      	pop	{r3, pc}
		case 2:
			add_to_calc(9);
   80566:	2009      	movs	r0, #9
   80568:	4b26      	ldr	r3, [pc, #152]	; (80604 <button_event_handler+0xc8>)
   8056a:	4798      	blx	r3
			break;
   8056c:	bd08      	pop	{r3, pc}
		case 3:
			//mno¿enie
			calculator_mode = 3;
   8056e:	2203      	movs	r2, #3
   80570:	4b25      	ldr	r3, [pc, #148]	; (80608 <button_event_handler+0xcc>)
   80572:	601a      	str	r2, [r3, #0]
			calculator_state = 1;
   80574:	2201      	movs	r2, #1
   80576:	4b25      	ldr	r3, [pc, #148]	; (8060c <button_event_handler+0xd0>)
   80578:	601a      	str	r2, [r3, #0]
			break;
   8057a:	bd08      	pop	{r3, pc}
		case 4:
			add_to_calc(4);
   8057c:	2004      	movs	r0, #4
   8057e:	4b21      	ldr	r3, [pc, #132]	; (80604 <button_event_handler+0xc8>)
   80580:	4798      	blx	r3
			break;
   80582:	bd08      	pop	{r3, pc}
		case 5:
			add_to_calc(5);
   80584:	2005      	movs	r0, #5
   80586:	4b1f      	ldr	r3, [pc, #124]	; (80604 <button_event_handler+0xc8>)
   80588:	4798      	blx	r3
			break;
   8058a:	bd08      	pop	{r3, pc}
		case 6:
			add_to_calc(6);
   8058c:	2006      	movs	r0, #6
   8058e:	4b1d      	ldr	r3, [pc, #116]	; (80604 <button_event_handler+0xc8>)
   80590:	4798      	blx	r3
			break;
   80592:	bd08      	pop	{r3, pc}
		case 7:
			//dzielenie
			calculator_mode = 4;
   80594:	2204      	movs	r2, #4
   80596:	4b1c      	ldr	r3, [pc, #112]	; (80608 <button_event_handler+0xcc>)
   80598:	601a      	str	r2, [r3, #0]
			calculator_state = 1;		
   8059a:	2201      	movs	r2, #1
   8059c:	4b1b      	ldr	r3, [pc, #108]	; (8060c <button_event_handler+0xd0>)
   8059e:	601a      	str	r2, [r3, #0]
			break;
   805a0:	bd08      	pop	{r3, pc}
		case 8:
			add_to_calc(1);
   805a2:	2001      	movs	r0, #1
   805a4:	4b17      	ldr	r3, [pc, #92]	; (80604 <button_event_handler+0xc8>)
   805a6:	4798      	blx	r3
			break;
   805a8:	bd08      	pop	{r3, pc}
		case 9:
			add_to_calc(2);
   805aa:	2002      	movs	r0, #2
   805ac:	4b15      	ldr	r3, [pc, #84]	; (80604 <button_event_handler+0xc8>)
   805ae:	4798      	blx	r3
			break;
   805b0:	bd08      	pop	{r3, pc}
		case 10:
			add_to_calc(3);
   805b2:	2003      	movs	r0, #3
   805b4:	4b13      	ldr	r3, [pc, #76]	; (80604 <button_event_handler+0xc8>)
   805b6:	4798      	blx	r3
			break;
   805b8:	bd08      	pop	{r3, pc}
		case 11:
			//odejmowanie
			calculator_mode = 2;
   805ba:	2202      	movs	r2, #2
   805bc:	4b12      	ldr	r3, [pc, #72]	; (80608 <button_event_handler+0xcc>)
   805be:	601a      	str	r2, [r3, #0]
			calculator_state = 1;
   805c0:	2201      	movs	r2, #1
   805c2:	4b12      	ldr	r3, [pc, #72]	; (8060c <button_event_handler+0xd0>)
   805c4:	601a      	str	r2, [r3, #0]
			break;
   805c6:	bd08      	pop	{r3, pc}
		case 12:
			//kasowanie
			calculator_mode = 1;
   805c8:	2201      	movs	r2, #1
   805ca:	4b0f      	ldr	r3, [pc, #60]	; (80608 <button_event_handler+0xcc>)
   805cc:	601a      	str	r2, [r3, #0]
			calculator_state = 0;
   805ce:	2300      	movs	r3, #0
   805d0:	4a0e      	ldr	r2, [pc, #56]	; (8060c <button_event_handler+0xd0>)
   805d2:	6013      	str	r3, [r2, #0]
			op1 = 0;
   805d4:	4a0e      	ldr	r2, [pc, #56]	; (80610 <button_event_handler+0xd4>)
   805d6:	6013      	str	r3, [r2, #0]
			op2 = 0;
   805d8:	4a0e      	ldr	r2, [pc, #56]	; (80614 <button_event_handler+0xd8>)
   805da:	6013      	str	r3, [r2, #0]
			break;
   805dc:	bd08      	pop	{r3, pc}
		case 13:
			add_to_calc(0);
   805de:	2000      	movs	r0, #0
   805e0:	4b08      	ldr	r3, [pc, #32]	; (80604 <button_event_handler+0xc8>)
   805e2:	4798      	blx	r3
			break;
   805e4:	bd08      	pop	{r3, pc}
		case 14:
			calc();
   805e6:	4b0c      	ldr	r3, [pc, #48]	; (80618 <button_event_handler+0xdc>)
   805e8:	4798      	blx	r3
			calculator_mode = 1;
   805ea:	2201      	movs	r2, #1
   805ec:	4b06      	ldr	r3, [pc, #24]	; (80608 <button_event_handler+0xcc>)
   805ee:	601a      	str	r2, [r3, #0]
			calculator_state = 0;
   805f0:	2200      	movs	r2, #0
   805f2:	4b06      	ldr	r3, [pc, #24]	; (8060c <button_event_handler+0xd0>)
   805f4:	601a      	str	r2, [r3, #0]
			break;
   805f6:	bd08      	pop	{r3, pc}
		case 15:
			//dodawanie 
			calculator_mode = 1;
   805f8:	2301      	movs	r3, #1
   805fa:	4a03      	ldr	r2, [pc, #12]	; (80608 <button_event_handler+0xcc>)
   805fc:	6013      	str	r3, [r2, #0]
			calculator_state = 1;
   805fe:	4a03      	ldr	r2, [pc, #12]	; (8060c <button_event_handler+0xd0>)
   80600:	6013      	str	r3, [r2, #0]
   80602:	bd08      	pop	{r3, pc}
   80604:	00080499 	.word	0x00080499
   80608:	20000118 	.word	0x20000118
   8060c:	200009d4 	.word	0x200009d4
   80610:	200009cc 	.word	0x200009cc
   80614:	200009d0 	.word	0x200009d0
   80618:	000804d1 	.word	0x000804d1

0008061c <press_button_handler>:
	}
	
}

void press_button_handler(unsigned int x, unsigned int y)
{
   8061c:	b500      	push	{lr}
   8061e:	b087      	sub	sp, #28
	short bx, by;
	if(x >= 8 && x <= 58) {
   80620:	f1a0 0308 	sub.w	r3, r0, #8
   80624:	2b32      	cmp	r3, #50	; 0x32
   80626:	d90d      	bls.n	80644 <press_button_handler+0x28>
		bx = 0;
	} else if(x >= 66 && x <= 116) {
   80628:	f1a0 0342 	sub.w	r3, r0, #66	; 0x42
   8062c:	2b32      	cmp	r3, #50	; 0x32
   8062e:	d90b      	bls.n	80648 <press_button_handler+0x2c>
		bx = 1;
	} else if(x >= 124 && x <= 174) {
   80630:	f1a0 037c 	sub.w	r3, r0, #124	; 0x7c
   80634:	2b32      	cmp	r3, #50	; 0x32
   80636:	d909      	bls.n	8064c <press_button_handler+0x30>
		bx = 2;
	} else if(x >= 182 && x <= 232) {
   80638:	38b6      	subs	r0, #182	; 0xb6
		bx = 3;
   8063a:	2832      	cmp	r0, #50	; 0x32
   8063c:	bf94      	ite	ls
   8063e:	2303      	movls	r3, #3
   80640:	2300      	movhi	r3, #0
   80642:	e004      	b.n	8064e <press_button_handler+0x32>

void press_button_handler(unsigned int x, unsigned int y)
{
	short bx, by;
	if(x >= 8 && x <= 58) {
		bx = 0;
   80644:	2300      	movs	r3, #0
   80646:	e002      	b.n	8064e <press_button_handler+0x32>
	} else if(x >= 66 && x <= 116) {
		bx = 1;
   80648:	2301      	movs	r3, #1
   8064a:	e000      	b.n	8064e <press_button_handler+0x32>
	} else if(x >= 124 && x <= 174) {
		bx = 2;
   8064c:	2302      	movs	r3, #2
	} else if(x >= 182 && x <= 232) {
		bx = 3;
	}
	
	if(y >= 90 && y <=140) {
   8064e:	f1a1 025a 	sub.w	r2, r1, #90	; 0x5a
   80652:	2a32      	cmp	r2, #50	; 0x32
   80654:	d90e      	bls.n	80674 <press_button_handler+0x58>
		by = 0;
	} else if(y >= 148 && y <=198) {
   80656:	f1a1 0294 	sub.w	r2, r1, #148	; 0x94
   8065a:	2a32      	cmp	r2, #50	; 0x32
   8065c:	d90c      	bls.n	80678 <press_button_handler+0x5c>
		by = 1;
	} else if(y >= 206 && y <=256) {
   8065e:	f1a1 02ce 	sub.w	r2, r1, #206	; 0xce
   80662:	2a32      	cmp	r2, #50	; 0x32
   80664:	d90a      	bls.n	8067c <press_button_handler+0x60>
		by = 2;
	} else if(y >= 264 && y <=314) {
   80666:	f5a1 7184 	sub.w	r1, r1, #264	; 0x108
		by = 3;
   8066a:	2932      	cmp	r1, #50	; 0x32
   8066c:	bf94      	ite	ls
   8066e:	2003      	movls	r0, #3
   80670:	2000      	movhi	r0, #0
   80672:	e004      	b.n	8067e <press_button_handler+0x62>
	} else if(x >= 182 && x <= 232) {
		bx = 3;
	}
	
	if(y >= 90 && y <=140) {
		by = 0;
   80674:	2000      	movs	r0, #0
   80676:	e002      	b.n	8067e <press_button_handler+0x62>
	} else if(y >= 148 && y <=198) {
		by = 1;
   80678:	2001      	movs	r0, #1
   8067a:	e000      	b.n	8067e <press_button_handler+0x62>
	} else if(y >= 206 && y <=256) {
		by = 2;
   8067c:	2002      	movs	r0, #2
	} else if(y >= 264 && y <=314) {
		by = 3;
	}

	button_event_handler(4*by + bx);
   8067e:	eb03 0080 	add.w	r0, r3, r0, lsl #2
   80682:	4b15      	ldr	r3, [pc, #84]	; (806d8 <press_button_handler+0xbc>)
   80684:	4798      	blx	r3
	
	draw_digit_screen();
   80686:	4b15      	ldr	r3, [pc, #84]	; (806dc <press_button_handler+0xc0>)
   80688:	4798      	blx	r3
	lcd_set_foreground_color(COLOR_BLUE);
   8068a:	20ff      	movs	r0, #255	; 0xff
   8068c:	4b14      	ldr	r3, [pc, #80]	; (806e0 <press_button_handler+0xc4>)
   8068e:	4798      	blx	r3
	
	char tab[20] = {};
   80690:	2300      	movs	r3, #0
   80692:	9301      	str	r3, [sp, #4]
   80694:	9302      	str	r3, [sp, #8]
   80696:	9303      	str	r3, [sp, #12]
   80698:	9304      	str	r3, [sp, #16]
   8069a:	9305      	str	r3, [sp, #20]
		
	itoa(op1, tab, 10);
   8069c:	220a      	movs	r2, #10
   8069e:	a901      	add	r1, sp, #4
   806a0:	4b10      	ldr	r3, [pc, #64]	; (806e4 <press_button_handler+0xc8>)
   806a2:	6818      	ldr	r0, [r3, #0]
   806a4:	4b10      	ldr	r3, [pc, #64]	; (806e8 <press_button_handler+0xcc>)
   806a6:	4798      	blx	r3
	lcd_draw_string(20, 20, tab);
   806a8:	aa01      	add	r2, sp, #4
   806aa:	2114      	movs	r1, #20
   806ac:	4608      	mov	r0, r1
   806ae:	4b0f      	ldr	r3, [pc, #60]	; (806ec <press_button_handler+0xd0>)
   806b0:	4798      	blx	r3
	
	if(calculator_state == 1) {
   806b2:	4b0f      	ldr	r3, [pc, #60]	; (806f0 <press_button_handler+0xd4>)
   806b4:	681b      	ldr	r3, [r3, #0]
   806b6:	2b01      	cmp	r3, #1
   806b8:	d10a      	bne.n	806d0 <press_button_handler+0xb4>
		itoa(op2, tab, 10);
   806ba:	220a      	movs	r2, #10
   806bc:	a901      	add	r1, sp, #4
   806be:	4b0d      	ldr	r3, [pc, #52]	; (806f4 <press_button_handler+0xd8>)
   806c0:	6818      	ldr	r0, [r3, #0]
   806c2:	4b09      	ldr	r3, [pc, #36]	; (806e8 <press_button_handler+0xcc>)
   806c4:	4798      	blx	r3
		lcd_draw_string(20, 40, tab);
   806c6:	aa01      	add	r2, sp, #4
   806c8:	2128      	movs	r1, #40	; 0x28
   806ca:	2014      	movs	r0, #20
   806cc:	4b07      	ldr	r3, [pc, #28]	; (806ec <press_button_handler+0xd0>)
   806ce:	4798      	blx	r3
	}

}
   806d0:	b007      	add	sp, #28
   806d2:	f85d fb04 	ldr.w	pc, [sp], #4
   806d6:	bf00      	nop
   806d8:	0008053d 	.word	0x0008053d
   806dc:	0008028d 	.word	0x0008028d
   806e0:	00080e0d 	.word	0x00080e0d
   806e4:	200009cc 	.word	0x200009cc
   806e8:	000822a1 	.word	0x000822a1
   806ec:	000811e9 	.word	0x000811e9
   806f0:	200009d4 	.word	0x200009d4
   806f4:	200009d0 	.word	0x200009d0

000806f8 <event_handler>:
 *
 * \param x horizontal position (in pixel if ts calibrated).
 * \param y vertical position (in pixel if ts calibrated).
 */
static void event_handler(rtouch_event_t const *event)
{
   806f8:	b510      	push	{r4, lr}
   806fa:	4604      	mov	r4, r0
	switch(event->type) {
   806fc:	7803      	ldrb	r3, [r0, #0]
   806fe:	2b01      	cmp	r3, #1
   80700:	d003      	beq.n	8070a <event_handler+0x12>
   80702:	b143      	cbz	r3, 80716 <event_handler+0x1e>
   80704:	2b02      	cmp	r3, #2
   80706:	d010      	beq.n	8072a <event_handler+0x32>
   80708:	bd10      	pop	{r4, pc}
	case RTOUCH_MOVE:
		printf("Pen moved at     (%03u, %03u)\n\r", (unsigned int) event->panel.x, (unsigned int) event->panel.y);
   8070a:	8882      	ldrh	r2, [r0, #4]
   8070c:	8841      	ldrh	r1, [r0, #2]
   8070e:	480a      	ldr	r0, [pc, #40]	; (80738 <event_handler+0x40>)
   80710:	4b0a      	ldr	r3, [pc, #40]	; (8073c <event_handler+0x44>)
   80712:	4798      	blx	r3
		break;
   80714:	bd10      	pop	{r4, pc}
	case RTOUCH_PRESS:
		press_button_handler((unsigned int) event->panel.x, (unsigned int) event->panel.y);
   80716:	8881      	ldrh	r1, [r0, #4]
   80718:	8840      	ldrh	r0, [r0, #2]
   8071a:	4b09      	ldr	r3, [pc, #36]	; (80740 <event_handler+0x48>)
   8071c:	4798      	blx	r3
		printf("Pen pressed at   (%03u, %03u)\n\r", (unsigned int) event->panel.x, (unsigned int) event->panel.y);
   8071e:	88a2      	ldrh	r2, [r4, #4]
   80720:	8861      	ldrh	r1, [r4, #2]
   80722:	4808      	ldr	r0, [pc, #32]	; (80744 <event_handler+0x4c>)
   80724:	4b05      	ldr	r3, [pc, #20]	; (8073c <event_handler+0x44>)
   80726:	4798      	blx	r3
		break;
   80728:	bd10      	pop	{r4, pc}
	case RTOUCH_RELEASE:
		printf("Pen released at  (%03u, %03u)\n\r", (unsigned int) event->panel.x, (unsigned int) event->panel.y);
   8072a:	8882      	ldrh	r2, [r0, #4]
   8072c:	8841      	ldrh	r1, [r0, #2]
   8072e:	4806      	ldr	r0, [pc, #24]	; (80748 <event_handler+0x50>)
   80730:	4b02      	ldr	r3, [pc, #8]	; (8073c <event_handler+0x44>)
   80732:	4798      	blx	r3
   80734:	bd10      	pop	{r4, pc}
   80736:	bf00      	nop
   80738:	00085294 	.word	0x00085294
   8073c:	00082249 	.word	0x00082249
   80740:	0008061d 	.word	0x0008061d
   80744:	000852b4 	.word	0x000852b4
   80748:	000852d4 	.word	0x000852d4

0008074c <main>:
 * \brief Application entry point for spi_touchscreen example.
 *
 * \return Unused (ANSI-C compatibility).
 */
int main(void)
{
   8074c:	b5f0      	push	{r4, r5, r6, r7, lr}
   8074e:	b085      	sub	sp, #20
	uint8_t uc_result;

	sysclk_init();
   80750:	4b4d      	ldr	r3, [pc, #308]	; (80888 <main+0x13c>)
   80752:	4798      	blx	r3
	board_init();
   80754:	4b4d      	ldr	r3, [pc, #308]	; (8088c <main+0x140>)
   80756:	4798      	blx	r3
 *
 * \param ul_id Id (number) of the peripheral clock.
 */
static inline void sysclk_enable_peripheral_clock(uint32_t ul_id)
{
	pmc_enable_periph_clk(ul_id);
   80758:	2008      	movs	r0, #8
   8075a:	4d4d      	ldr	r5, [pc, #308]	; (80890 <main+0x144>)
   8075c:	47a8      	blx	r5
 * \param opt         Options needed to set up RS232 communication (see \ref usart_options_t).
 *
 */
static inline void stdio_serial_init(volatile void *usart, const usart_serial_options_t *opt)
{
	stdio_base = (void *)usart;
   8075e:	4c4d      	ldr	r4, [pc, #308]	; (80894 <main+0x148>)
   80760:	4b4d      	ldr	r3, [pc, #308]	; (80898 <main+0x14c>)
   80762:	601c      	str	r4, [r3, #0]
	ptr_put = (int (*)(void volatile*,char))&usart_serial_putchar;
   80764:	4a4d      	ldr	r2, [pc, #308]	; (8089c <main+0x150>)
   80766:	4b4e      	ldr	r3, [pc, #312]	; (808a0 <main+0x154>)
   80768:	601a      	str	r2, [r3, #0]
	ptr_get = (void (*)(void volatile*,char*))&usart_serial_getchar;
   8076a:	4a4e      	ldr	r2, [pc, #312]	; (808a4 <main+0x158>)
   8076c:	4b4e      	ldr	r3, [pc, #312]	; (808a8 <main+0x15c>)
   8076e:	601a      	str	r2, [r3, #0]
static inline void usart_serial_init(usart_if p_usart,
		usart_serial_options_t *opt)
{
#if ((!SAM4L) && (!SAMG55))
	sam_uart_opt_t uart_settings;
	uart_settings.ul_mck = sysclk_get_peripheral_hz();
   80770:	4b4e      	ldr	r3, [pc, #312]	; (808ac <main+0x160>)
   80772:	9301      	str	r3, [sp, #4]
	uart_settings.ul_baudrate = opt->baudrate;
   80774:	f44f 33e1 	mov.w	r3, #115200	; 0x1c200
   80778:	9302      	str	r3, [sp, #8]
	uart_settings.ul_mode = opt->paritytype;
   8077a:	f44f 6300 	mov.w	r3, #2048	; 0x800
   8077e:	9303      	str	r3, [sp, #12]
   80780:	2008      	movs	r0, #8
   80782:	47a8      	blx	r5
	
#ifdef UART
	if (UART == (Uart*)p_usart) {
		sysclk_enable_peripheral_clock(ID_UART);
		/* Configure UART */
		uart_init((Uart*)p_usart, &uart_settings);
   80784:	a901      	add	r1, sp, #4
   80786:	4620      	mov	r0, r4
   80788:	4b49      	ldr	r3, [pc, #292]	; (808b0 <main+0x164>)
   8078a:	4798      	blx	r3
	fdevopen((int (*)(char, FILE*))(_write),(int (*)(FILE*))(_read));
#  endif
#  if UC3 || SAM
	// For AVR32 and SAM GCC
	// Specify that stdout and stdin should not be buffered.
	setbuf(stdout, NULL);
   8078c:	4e49      	ldr	r6, [pc, #292]	; (808b4 <main+0x168>)
   8078e:	6833      	ldr	r3, [r6, #0]
   80790:	2100      	movs	r1, #0
   80792:	6898      	ldr	r0, [r3, #8]
   80794:	4c48      	ldr	r4, [pc, #288]	; (808b8 <main+0x16c>)
   80796:	47a0      	blx	r4
	setbuf(stdin, NULL);
   80798:	6833      	ldr	r3, [r6, #0]
   8079a:	2100      	movs	r1, #0
   8079c:	6858      	ldr	r0, [r3, #4]
   8079e:	47a0      	blx	r4

	configure_console();

	/* Enable clocks for push buttons management */
	pmc_enable_periph_clk(ID_PIOA);
   807a0:	200a      	movs	r0, #10
   807a2:	47a8      	blx	r5
	pmc_enable_periph_clk(ID_PIOB);
   807a4:	200b      	movs	r0, #11
   807a6:	47a8      	blx	r5
	pmc_enable_periph_clk(ID_PIOC);
   807a8:	200c      	movs	r0, #12
   807aa:	47a8      	blx	r5

	/* Output example information */
	puts(STRING_HEADER);
   807ac:	4843      	ldr	r0, [pc, #268]	; (808bc <main+0x170>)
   807ae:	4c44      	ldr	r4, [pc, #272]	; (808c0 <main+0x174>)
   807b0:	47a0      	blx	r4

	/* Configure systick for 1 ms. */
	puts("Configure system tick to get 1ms tick period.\r");
   807b2:	4844      	ldr	r0, [pc, #272]	; (808c4 <main+0x178>)
   807b4:	47a0      	blx	r4
 */
__STATIC_INLINE uint32_t SysTick_Config(uint32_t ticks)
{
  if ((ticks - 1) > SysTick_LOAD_RELOAD_Msk)  return (1);      /* Reload value impossible */

  SysTick->LOAD  = ticks - 1;                                  /* set reload register */
   807b6:	4b44      	ldr	r3, [pc, #272]	; (808c8 <main+0x17c>)
   807b8:	4a44      	ldr	r2, [pc, #272]	; (808cc <main+0x180>)
   807ba:	605a      	str	r2, [r3, #4]
    \param [in]  priority  Priority to set.
 */
__STATIC_INLINE void NVIC_SetPriority(IRQn_Type IRQn, uint32_t priority)
{
  if(IRQn < 0) {
    SCB->SHP[((uint32_t)(IRQn) & 0xF)-4] = ((priority << (8 - __NVIC_PRIO_BITS)) & 0xff); } /* set Priority for Cortex-M  System Interrupts */
   807bc:	26f0      	movs	r6, #240	; 0xf0
   807be:	4a44      	ldr	r2, [pc, #272]	; (808d0 <main+0x184>)
   807c0:	f882 6023 	strb.w	r6, [r2, #35]	; 0x23
{
  if ((ticks - 1) > SysTick_LOAD_RELOAD_Msk)  return (1);      /* Reload value impossible */

  SysTick->LOAD  = ticks - 1;                                  /* set reload register */
  NVIC_SetPriority (SysTick_IRQn, (1<<__NVIC_PRIO_BITS) - 1);  /* set Priority for Systick Interrupt */
  SysTick->VAL   = 0;                                          /* Load the SysTick Counter Value */
   807c4:	2400      	movs	r4, #0
   807c6:	609c      	str	r4, [r3, #8]
  SysTick->CTRL  = SysTick_CTRL_CLKSOURCE_Msk |
   807c8:	2207      	movs	r2, #7
   807ca:	601a      	str	r2, [r3, #0]
		puts("Systick configuration error\r");
		while (1);
	}

	/* Switch off backlight */
	aat31xx_disable_backlight();
   807cc:	4b41      	ldr	r3, [pc, #260]	; (808d4 <main+0x188>)
   807ce:	4798      	blx	r3
static void lcd_init(void)
{
	struct hx8347a_opt_t g_display_opt;
	
	/* Enable SMC clock */
	pmc_enable_periph_clk(ID_SMC);
   807d0:	2009      	movs	r0, #9
   807d2:	47a8      	blx	r5

	/* Configure SMC interface for Lcd */
	smc_set_setup_timing(SMC, CONF_BOARD_HX8347A_LCD_CS, SMC_SETUP_NWE_SETUP(1)
   807d4:	4d40      	ldr	r5, [pc, #256]	; (808d8 <main+0x18c>)
   807d6:	4a41      	ldr	r2, [pc, #260]	; (808dc <main+0x190>)
   807d8:	2102      	movs	r1, #2
   807da:	4628      	mov	r0, r5
   807dc:	4b40      	ldr	r3, [pc, #256]	; (808e0 <main+0x194>)
   807de:	4798      	blx	r3
			| SMC_SETUP_NCS_WR_SETUP(1)
			| SMC_SETUP_NRD_SETUP(9)
			| SMC_SETUP_NCS_RD_SETUP(9));
	smc_set_pulse_timing(SMC, CONF_BOARD_HX8347A_LCD_CS, SMC_PULSE_NWE_PULSE(4)
   807e0:	4a40      	ldr	r2, [pc, #256]	; (808e4 <main+0x198>)
   807e2:	2102      	movs	r1, #2
   807e4:	4628      	mov	r0, r5
   807e6:	4b40      	ldr	r3, [pc, #256]	; (808e8 <main+0x19c>)
   807e8:	4798      	blx	r3
			| SMC_PULSE_NCS_WR_PULSE(4)
			| SMC_PULSE_NRD_PULSE(36)
			| SMC_PULSE_NCS_RD_PULSE(36));
	smc_set_cycle_timing(SMC, CONF_BOARD_HX8347A_LCD_CS, SMC_CYCLE_NWE_CYCLE(10)
   807ea:	4a40      	ldr	r2, [pc, #256]	; (808ec <main+0x1a0>)
   807ec:	2102      	movs	r1, #2
   807ee:	4628      	mov	r0, r5
   807f0:	4b3f      	ldr	r3, [pc, #252]	; (808f0 <main+0x1a4>)
   807f2:	4798      	blx	r3
			| SMC_CYCLE_NRD_CYCLE(45));
	smc_set_mode(SMC, CONF_BOARD_HX8347A_LCD_CS, SMC_MODE_READ_MODE
   807f4:	f241 0203 	movw	r2, #4099	; 0x1003
   807f8:	2102      	movs	r1, #2
   807fa:	4628      	mov	r0, r5
   807fc:	4b3d      	ldr	r3, [pc, #244]	; (808f4 <main+0x1a8>)
   807fe:	4798      	blx	r3
			| SMC_MODE_WRITE_MODE | SMC_MODE_DBW_BIT_16);

	/* Initialize display parameter */
	g_display_opt.ul_width = HX8347A_LCD_WIDTH;
   80800:	9601      	str	r6, [sp, #4]
	g_display_opt.ul_height = HX8347A_LCD_HEIGHT;
   80802:	f44f 75a0 	mov.w	r5, #320	; 0x140
   80806:	9502      	str	r5, [sp, #8]
	g_display_opt.foreground_color = rgb24_to_rgb16(COLOR_BLACK);
   80808:	f8ad 400c 	strh.w	r4, [sp, #12]
	g_display_opt.background_color = rgb24_to_rgb16(COLOR_WHITE);
   8080c:	f64f 77ff 	movw	r7, #65535	; 0xffff
   80810:	f8ad 700e 	strh.w	r7, [sp, #14]

	/* Initialize hx8347a */
	hx8347a_init(&g_display_opt);
   80814:	a801      	add	r0, sp, #4
   80816:	4b38      	ldr	r3, [pc, #224]	; (808f8 <main+0x1ac>)
   80818:	4798      	blx	r3

	lcd_init();

	lcd_set_foreground_color(UNI_COLOR_WHITE);
   8081a:	4638      	mov	r0, r7
   8081c:	4b37      	ldr	r3, [pc, #220]	; (808fc <main+0x1b0>)
   8081e:	4798      	blx	r3
	lcd_draw_filled_rectangle(0, 0, LCD_WIDTH, LCD_HEIGHT);
   80820:	462b      	mov	r3, r5
   80822:	4632      	mov	r2, r6
   80824:	4621      	mov	r1, r4
   80826:	4620      	mov	r0, r4
   80828:	4f35      	ldr	r7, [pc, #212]	; (80900 <main+0x1b4>)
   8082a:	47b8      	blx	r7

	/* Turn on LCD */
	lcd_display_on();
   8082c:	4b35      	ldr	r3, [pc, #212]	; (80904 <main+0x1b8>)
   8082e:	4798      	blx	r3

	/* Switch on backlight */
	aat31xx_set_backlight(AAT31XX_MAX_BACKLIGHT_LEVEL);
   80830:	2020      	movs	r0, #32
   80832:	4b35      	ldr	r3, [pc, #212]	; (80908 <main+0x1bc>)
   80834:	4798      	blx	r3

	/* Initializes the PIO interrupt management for touchscreen driver */
	pio_handler_set_priority(PIOA, PIOA_IRQn, IRQ_PRIOR_PIO);
   80836:	4622      	mov	r2, r4
   80838:	210a      	movs	r1, #10
   8083a:	4834      	ldr	r0, [pc, #208]	; (8090c <main+0x1c0>)
   8083c:	4f34      	ldr	r7, [pc, #208]	; (80910 <main+0x1c4>)
   8083e:	47b8      	blx	r7
	pio_handler_set_priority(PIOB, PIOB_IRQn, IRQ_PRIOR_PIO);
   80840:	4622      	mov	r2, r4
   80842:	210b      	movs	r1, #11
   80844:	4833      	ldr	r0, [pc, #204]	; (80914 <main+0x1c8>)
   80846:	47b8      	blx	r7
	pio_handler_set_priority(PIOC, PIOC_IRQn, IRQ_PRIOR_PIO);
   80848:	4622      	mov	r2, r4
   8084a:	210c      	movs	r1, #12
   8084c:	4832      	ldr	r0, [pc, #200]	; (80918 <main+0x1cc>)
   8084e:	47b8      	blx	r7

	/* Initialize touchscreen without calibration */
	rtouch_init(LCD_WIDTH, LCD_HEIGHT);
   80850:	4629      	mov	r1, r5
   80852:	4630      	mov	r0, r6
   80854:	4b31      	ldr	r3, [pc, #196]	; (8091c <main+0x1d0>)
   80856:	4798      	blx	r3
	rtouch_enable();
   80858:	4b31      	ldr	r3, [pc, #196]	; (80920 <main+0x1d4>)
   8085a:	4798      	blx	r3
	rtouch_set_event_handler(event_handler);
   8085c:	4831      	ldr	r0, [pc, #196]	; (80924 <main+0x1d8>)
   8085e:	4b32      	ldr	r3, [pc, #200]	; (80928 <main+0x1dc>)
   80860:	4798      	blx	r3

	while (1) {
		uc_result = rtouch_calibrate();
   80862:	4e32      	ldr	r6, [pc, #200]	; (8092c <main+0x1e0>)
		if (uc_result == 0) {
			puts("Calibration successful !\r");
			break;
		} else {
			puts("Calibration failed; error delta is too big ! Please retry calibration procedure...\r");
   80864:	4d32      	ldr	r5, [pc, #200]	; (80930 <main+0x1e4>)
   80866:	4c16      	ldr	r4, [pc, #88]	; (808c0 <main+0x174>)
	rtouch_init(LCD_WIDTH, LCD_HEIGHT);
	rtouch_enable();
	rtouch_set_event_handler(event_handler);

	while (1) {
		uc_result = rtouch_calibrate();
   80868:	47b0      	blx	r6
		if (uc_result == 0) {
   8086a:	b2c0      	uxtb	r0, r0
   8086c:	b940      	cbnz	r0, 80880 <main+0x134>
			puts("Calibration successful !\r");
   8086e:	4831      	ldr	r0, [pc, #196]	; (80934 <main+0x1e8>)
   80870:	4b13      	ldr	r3, [pc, #76]	; (808c0 <main+0x174>)
   80872:	4798      	blx	r3
		} else {
			puts("Calibration failed; error delta is too big ! Please retry calibration procedure...\r");
		}
	}

	target_operand = &op1;
   80874:	4a30      	ldr	r2, [pc, #192]	; (80938 <main+0x1ec>)
   80876:	4b31      	ldr	r3, [pc, #196]	; (8093c <main+0x1f0>)
   80878:	601a      	str	r2, [r3, #0]

	drawScene();
   8087a:	4b31      	ldr	r3, [pc, #196]	; (80940 <main+0x1f4>)
   8087c:	4798      	blx	r3
   8087e:	e002      	b.n	80886 <main+0x13a>
		uc_result = rtouch_calibrate();
		if (uc_result == 0) {
			puts("Calibration successful !\r");
			break;
		} else {
			puts("Calibration failed; error delta is too big ! Please retry calibration procedure...\r");
   80880:	4628      	mov	r0, r5
   80882:	47a0      	blx	r4
		}
	}
   80884:	e7f0      	b.n	80868 <main+0x11c>
   80886:	e7fe      	b.n	80886 <main+0x13a>
   80888:	00080945 	.word	0x00080945
   8088c:	00080b4d 	.word	0x00080b4d
   80890:	00081991 	.word	0x00081991
   80894:	400e0600 	.word	0x400e0600
   80898:	20000cb4 	.word	0x20000cb4
   8089c:	000801c1 	.word	0x000801c1
   808a0:	20000cb0 	.word	0x20000cb0
   808a4:	00080119 	.word	0x00080119
   808a8:	20000cac 	.word	0x20000cac
   808ac:	05b8d800 	.word	0x05b8d800
   808b0:	00081af5 	.word	0x00081af5
   808b4:	20000570 	.word	0x20000570
   808b8:	000823b9 	.word	0x000823b9
   808bc:	000852f4 	.word	0x000852f4
   808c0:	000823a9 	.word	0x000823a9
   808c4:	0008534c 	.word	0x0008534c
   808c8:	e000e010 	.word	0xe000e010
   808cc:	000176ff 	.word	0x000176ff
   808d0:	e000ed00 	.word	0xe000ed00
   808d4:	00080cc5 	.word	0x00080cc5
   808d8:	400e0000 	.word	0x400e0000
   808dc:	09090101 	.word	0x09090101
   808e0:	00081429 	.word	0x00081429
   808e4:	24240404 	.word	0x24240404
   808e8:	00081435 	.word	0x00081435
   808ec:	002d000a 	.word	0x002d000a
   808f0:	00081441 	.word	0x00081441
   808f4:	0008144d 	.word	0x0008144d
   808f8:	00080edd 	.word	0x00080edd
   808fc:	00080e0d 	.word	0x00080e0d
   80900:	00081131 	.word	0x00081131
   80904:	00080dcd 	.word	0x00080dcd
   80908:	00080c6d 	.word	0x00080c6d
   8090c:	400e0c00 	.word	0x400e0c00
   80910:	00081821 	.word	0x00081821
   80914:	400e0e00 	.word	0x400e0e00
   80918:	400e1000 	.word	0x400e1000
   8091c:	00081c35 	.word	0x00081c35
   80920:	00081c89 	.word	0x00081c89
   80924:	000806f9 	.word	0x000806f9
   80928:	00081d75 	.word	0x00081d75
   8092c:	000820ed 	.word	0x000820ed
   80930:	00085398 	.word	0x00085398
   80934:	0008537c 	.word	0x0008537c
   80938:	200009cc 	.word	0x200009cc
   8093c:	20000ca8 	.word	0x20000ca8
   80940:	0008045d 	.word	0x0008045d

00080944 <sysclk_init>:
   80944:	b510      	push	{r4, lr}
   80946:	4812      	ldr	r0, [pc, #72]	; (80990 <sysclk_init+0x4c>)
   80948:	4b12      	ldr	r3, [pc, #72]	; (80994 <sysclk_init+0x50>)
   8094a:	4798      	blx	r3
   8094c:	203e      	movs	r0, #62	; 0x3e
   8094e:	4b12      	ldr	r3, [pc, #72]	; (80998 <sysclk_init+0x54>)
   80950:	4798      	blx	r3
   80952:	4c12      	ldr	r4, [pc, #72]	; (8099c <sysclk_init+0x58>)
   80954:	47a0      	blx	r4
   80956:	2800      	cmp	r0, #0
   80958:	d0fc      	beq.n	80954 <sysclk_init+0x10>
   8095a:	f04f 7080 	mov.w	r0, #16777216	; 0x1000000
   8095e:	4b10      	ldr	r3, [pc, #64]	; (809a0 <sysclk_init+0x5c>)
   80960:	4798      	blx	r3
   80962:	4c10      	ldr	r4, [pc, #64]	; (809a4 <sysclk_init+0x60>)
   80964:	47a0      	blx	r4
   80966:	2800      	cmp	r0, #0
   80968:	d0fc      	beq.n	80964 <sysclk_init+0x20>
   8096a:	4b0f      	ldr	r3, [pc, #60]	; (809a8 <sysclk_init+0x64>)
   8096c:	4798      	blx	r3
   8096e:	4a0f      	ldr	r2, [pc, #60]	; (809ac <sysclk_init+0x68>)
   80970:	4b0f      	ldr	r3, [pc, #60]	; (809b0 <sysclk_init+0x6c>)
   80972:	629a      	str	r2, [r3, #40]	; 0x28
   80974:	4c0f      	ldr	r4, [pc, #60]	; (809b4 <sysclk_init+0x70>)
   80976:	47a0      	blx	r4
   80978:	2800      	cmp	r0, #0
   8097a:	d0fc      	beq.n	80976 <sysclk_init+0x32>
   8097c:	2010      	movs	r0, #16
   8097e:	4b0e      	ldr	r3, [pc, #56]	; (809b8 <sysclk_init+0x74>)
   80980:	4798      	blx	r3
   80982:	4b0e      	ldr	r3, [pc, #56]	; (809bc <sysclk_init+0x78>)
   80984:	4798      	blx	r3
   80986:	4802      	ldr	r0, [pc, #8]	; (80990 <sysclk_init+0x4c>)
   80988:	4b02      	ldr	r3, [pc, #8]	; (80994 <sysclk_init+0x50>)
   8098a:	4798      	blx	r3
   8098c:	bd10      	pop	{r4, pc}
   8098e:	bf00      	nop
   80990:	05b8d800 	.word	0x05b8d800
   80994:	200000a9 	.word	0x200000a9
   80998:	00081909 	.word	0x00081909
   8099c:	00081931 	.word	0x00081931
   809a0:	00081951 	.word	0x00081951
   809a4:	00081941 	.word	0x00081941
   809a8:	00081971 	.word	0x00081971
   809ac:	200f3f01 	.word	0x200f3f01
   809b0:	400e0400 	.word	0x400e0400
   809b4:	00081981 	.word	0x00081981
   809b8:	000818a1 	.word	0x000818a1
   809bc:	00081f81 	.word	0x00081f81

000809c0 <spi_master_init>:
   809c0:	b510      	push	{r4, lr}
   809c2:	4604      	mov	r4, r0
   809c4:	4b10      	ldr	r3, [pc, #64]	; (80a08 <spi_master_init+0x48>)
   809c6:	4798      	blx	r3
   809c8:	2380      	movs	r3, #128	; 0x80
   809ca:	6023      	str	r3, [r4, #0]
   809cc:	6863      	ldr	r3, [r4, #4]
   809ce:	f043 0301 	orr.w	r3, r3, #1
   809d2:	6063      	str	r3, [r4, #4]
   809d4:	6863      	ldr	r3, [r4, #4]
   809d6:	f043 0310 	orr.w	r3, r3, #16
   809da:	6063      	str	r3, [r4, #4]
   809dc:	6863      	ldr	r3, [r4, #4]
   809de:	f023 0380 	bic.w	r3, r3, #128	; 0x80
   809e2:	6063      	str	r3, [r4, #4]
   809e4:	2100      	movs	r1, #0
   809e6:	4620      	mov	r0, r4
   809e8:	4b08      	ldr	r3, [pc, #32]	; (80a0c <spi_master_init+0x4c>)
   809ea:	4798      	blx	r3
   809ec:	6863      	ldr	r3, [r4, #4]
   809ee:	f023 0302 	bic.w	r3, r3, #2
   809f2:	6063      	str	r3, [r4, #4]
   809f4:	6863      	ldr	r3, [r4, #4]
   809f6:	f023 0304 	bic.w	r3, r3, #4
   809fa:	6063      	str	r3, [r4, #4]
   809fc:	2100      	movs	r1, #0
   809fe:	4620      	mov	r0, r4
   80a00:	4b03      	ldr	r3, [pc, #12]	; (80a10 <spi_master_init+0x50>)
   80a02:	4798      	blx	r3
   80a04:	bd10      	pop	{r4, pc}
   80a06:	bf00      	nop
   80a08:	000819c5 	.word	0x000819c5
   80a0c:	000819d5 	.word	0x000819d5
   80a10:	000819ed 	.word	0x000819ed

00080a14 <spi_master_setup_device>:
   80a14:	e92d 41f0 	stmdb	sp!, {r4, r5, r6, r7, r8, lr}
   80a18:	4604      	mov	r4, r0
   80a1a:	460d      	mov	r5, r1
   80a1c:	4616      	mov	r6, r2
   80a1e:	4915      	ldr	r1, [pc, #84]	; (80a74 <spi_master_setup_device+0x60>)
   80a20:	4618      	mov	r0, r3
   80a22:	4b15      	ldr	r3, [pc, #84]	; (80a78 <spi_master_setup_device+0x64>)
   80a24:	4798      	blx	r3
   80a26:	4607      	mov	r7, r0
   80a28:	2300      	movs	r3, #0
   80a2a:	461a      	mov	r2, r3
   80a2c:	6829      	ldr	r1, [r5, #0]
   80a2e:	4620      	mov	r0, r4
   80a30:	f8df 805c 	ldr.w	r8, [pc, #92]	; 80a90 <spi_master_setup_device+0x7c>
   80a34:	47c0      	blx	r8
   80a36:	2208      	movs	r2, #8
   80a38:	6829      	ldr	r1, [r5, #0]
   80a3a:	4620      	mov	r0, r4
   80a3c:	4b0f      	ldr	r3, [pc, #60]	; (80a7c <spi_master_setup_device+0x68>)
   80a3e:	4798      	blx	r3
   80a40:	b2fa      	uxtb	r2, r7
   80a42:	6829      	ldr	r1, [r5, #0]
   80a44:	4620      	mov	r0, r4
   80a46:	4b0e      	ldr	r3, [pc, #56]	; (80a80 <spi_master_setup_device+0x6c>)
   80a48:	4798      	blx	r3
   80a4a:	2208      	movs	r2, #8
   80a4c:	6829      	ldr	r1, [r5, #0]
   80a4e:	4620      	mov	r0, r4
   80a50:	4b0c      	ldr	r3, [pc, #48]	; (80a84 <spi_master_setup_device+0x70>)
   80a52:	4798      	blx	r3
   80a54:	0872      	lsrs	r2, r6, #1
   80a56:	6829      	ldr	r1, [r5, #0]
   80a58:	4620      	mov	r0, r4
   80a5a:	4b0b      	ldr	r3, [pc, #44]	; (80a88 <spi_master_setup_device+0x74>)
   80a5c:	4798      	blx	r3
   80a5e:	f086 0201 	eor.w	r2, r6, #1
   80a62:	f002 0201 	and.w	r2, r2, #1
   80a66:	6829      	ldr	r1, [r5, #0]
   80a68:	4620      	mov	r0, r4
   80a6a:	4b08      	ldr	r3, [pc, #32]	; (80a8c <spi_master_setup_device+0x78>)
   80a6c:	4798      	blx	r3
   80a6e:	e8bd 81f0 	ldmia.w	sp!, {r4, r5, r6, r7, r8, pc}
   80a72:	bf00      	nop
   80a74:	05b8d800 	.word	0x05b8d800
   80a78:	00081a99 	.word	0x00081a99
   80a7c:	00081a85 	.word	0x00081a85
   80a80:	00081ab1 	.word	0x00081ab1
   80a84:	00081a41 	.word	0x00081a41
   80a88:	00081a01 	.word	0x00081a01
   80a8c:	00081a21 	.word	0x00081a21
   80a90:	00081ad9 	.word	0x00081ad9

00080a94 <spi_select_device>:
   80a94:	b508      	push	{r3, lr}
   80a96:	6843      	ldr	r3, [r0, #4]
   80a98:	f013 0f04 	tst.w	r3, #4
   80a9c:	d005      	beq.n	80aaa <spi_select_device+0x16>
   80a9e:	6809      	ldr	r1, [r1, #0]
   80aa0:	290f      	cmp	r1, #15
   80aa2:	d80a      	bhi.n	80aba <spi_select_device+0x26>
   80aa4:	4b05      	ldr	r3, [pc, #20]	; (80abc <spi_select_device+0x28>)
   80aa6:	4798      	blx	r3
   80aa8:	bd08      	pop	{r3, pc}
   80aaa:	680b      	ldr	r3, [r1, #0]
   80aac:	2b03      	cmp	r3, #3
   80aae:	d804      	bhi.n	80aba <spi_select_device+0x26>
   80ab0:	2101      	movs	r1, #1
   80ab2:	4099      	lsls	r1, r3
   80ab4:	43c9      	mvns	r1, r1
   80ab6:	4b01      	ldr	r3, [pc, #4]	; (80abc <spi_select_device+0x28>)
   80ab8:	4798      	blx	r3
   80aba:	bd08      	pop	{r3, pc}
   80abc:	000819d5 	.word	0x000819d5

00080ac0 <_read>:
   80ac0:	b990      	cbnz	r0, 80ae8 <_read+0x28>
   80ac2:	e92d 41f0 	stmdb	sp!, {r4, r5, r6, r7, r8, lr}
   80ac6:	460c      	mov	r4, r1
   80ac8:	4690      	mov	r8, r2
   80aca:	2a00      	cmp	r2, #0
   80acc:	dd0f      	ble.n	80aee <_read+0x2e>
   80ace:	188f      	adds	r7, r1, r2
   80ad0:	4e08      	ldr	r6, [pc, #32]	; (80af4 <_read+0x34>)
   80ad2:	4d09      	ldr	r5, [pc, #36]	; (80af8 <_read+0x38>)
   80ad4:	6830      	ldr	r0, [r6, #0]
   80ad6:	4621      	mov	r1, r4
   80ad8:	682b      	ldr	r3, [r5, #0]
   80ada:	4798      	blx	r3
   80adc:	3401      	adds	r4, #1
   80ade:	42a7      	cmp	r7, r4
   80ae0:	d1f8      	bne.n	80ad4 <_read+0x14>
   80ae2:	4640      	mov	r0, r8
   80ae4:	e8bd 81f0 	ldmia.w	sp!, {r4, r5, r6, r7, r8, pc}
   80ae8:	f04f 30ff 	mov.w	r0, #4294967295
   80aec:	4770      	bx	lr
   80aee:	2000      	movs	r0, #0
   80af0:	e8bd 81f0 	ldmia.w	sp!, {r4, r5, r6, r7, r8, pc}
   80af4:	20000cb4 	.word	0x20000cb4
   80af8:	20000cac 	.word	0x20000cac

00080afc <_write>:
   80afc:	3801      	subs	r0, #1
   80afe:	2802      	cmp	r0, #2
   80b00:	d815      	bhi.n	80b2e <_write+0x32>
   80b02:	e92d 41f0 	stmdb	sp!, {r4, r5, r6, r7, r8, lr}
   80b06:	460e      	mov	r6, r1
   80b08:	4614      	mov	r4, r2
   80b0a:	b19a      	cbz	r2, 80b34 <_write+0x38>
   80b0c:	460d      	mov	r5, r1
   80b0e:	f8df 8038 	ldr.w	r8, [pc, #56]	; 80b48 <_write+0x4c>
   80b12:	4f0c      	ldr	r7, [pc, #48]	; (80b44 <_write+0x48>)
   80b14:	f8d8 0000 	ldr.w	r0, [r8]
   80b18:	f815 1b01 	ldrb.w	r1, [r5], #1
   80b1c:	683b      	ldr	r3, [r7, #0]
   80b1e:	4798      	blx	r3
   80b20:	2800      	cmp	r0, #0
   80b22:	db0a      	blt.n	80b3a <_write+0x3e>
   80b24:	1ba8      	subs	r0, r5, r6
   80b26:	3c01      	subs	r4, #1
   80b28:	d1f4      	bne.n	80b14 <_write+0x18>
   80b2a:	e8bd 81f0 	ldmia.w	sp!, {r4, r5, r6, r7, r8, pc}
   80b2e:	f04f 30ff 	mov.w	r0, #4294967295
   80b32:	4770      	bx	lr
   80b34:	2000      	movs	r0, #0
   80b36:	e8bd 81f0 	ldmia.w	sp!, {r4, r5, r6, r7, r8, pc}
   80b3a:	f04f 30ff 	mov.w	r0, #4294967295
   80b3e:	e8bd 81f0 	ldmia.w	sp!, {r4, r5, r6, r7, r8, pc}
   80b42:	bf00      	nop
   80b44:	20000cb0 	.word	0x20000cb0
   80b48:	20000cb4 	.word	0x20000cb4

00080b4c <board_init>:
   80b4c:	b570      	push	{r4, r5, r6, lr}
   80b4e:	f44f 4200 	mov.w	r2, #32768	; 0x8000
   80b52:	4b3d      	ldr	r3, [pc, #244]	; (80c48 <board_init+0xfc>)
   80b54:	605a      	str	r2, [r3, #4]
   80b56:	200a      	movs	r0, #10
   80b58:	4c3c      	ldr	r4, [pc, #240]	; (80c4c <board_init+0x100>)
   80b5a:	47a0      	blx	r4
   80b5c:	200b      	movs	r0, #11
   80b5e:	47a0      	blx	r4
   80b60:	200c      	movs	r0, #12
   80b62:	47a0      	blx	r4
   80b64:	f04f 5160 	mov.w	r1, #939524096	; 0x38000000
   80b68:	2020      	movs	r0, #32
   80b6a:	4c39      	ldr	r4, [pc, #228]	; (80c50 <board_init+0x104>)
   80b6c:	47a0      	blx	r4
   80b6e:	f04f 5160 	mov.w	r1, #939524096	; 0x38000000
   80b72:	2021      	movs	r0, #33	; 0x21
   80b74:	47a0      	blx	r4
   80b76:	4937      	ldr	r1, [pc, #220]	; (80c54 <board_init+0x108>)
   80b78:	2012      	movs	r0, #18
   80b7a:	47a0      	blx	r4
   80b7c:	4936      	ldr	r1, [pc, #216]	; (80c58 <board_init+0x10c>)
   80b7e:	2013      	movs	r0, #19
   80b80:	47a0      	blx	r4
   80b82:	f04f 6200 	mov.w	r2, #134217728	; 0x8000000
   80b86:	f44f 51c0 	mov.w	r1, #6144	; 0x1800
   80b8a:	4834      	ldr	r0, [pc, #208]	; (80c5c <board_init+0x110>)
   80b8c:	4b34      	ldr	r3, [pc, #208]	; (80c60 <board_init+0x114>)
   80b8e:	4798      	blx	r3
   80b90:	4d34      	ldr	r5, [pc, #208]	; (80c64 <board_init+0x118>)
   80b92:	4629      	mov	r1, r5
   80b94:	2029      	movs	r0, #41	; 0x29
   80b96:	47a0      	blx	r4
   80b98:	4629      	mov	r1, r5
   80b9a:	202a      	movs	r0, #42	; 0x2a
   80b9c:	47a0      	blx	r4
   80b9e:	4629      	mov	r1, r5
   80ba0:	202b      	movs	r0, #43	; 0x2b
   80ba2:	47a0      	blx	r4
   80ba4:	4629      	mov	r1, r5
   80ba6:	202c      	movs	r0, #44	; 0x2c
   80ba8:	47a0      	blx	r4
   80baa:	4629      	mov	r1, r5
   80bac:	202d      	movs	r0, #45	; 0x2d
   80bae:	47a0      	blx	r4
   80bb0:	4629      	mov	r1, r5
   80bb2:	202e      	movs	r0, #46	; 0x2e
   80bb4:	47a0      	blx	r4
   80bb6:	4629      	mov	r1, r5
   80bb8:	202f      	movs	r0, #47	; 0x2f
   80bba:	47a0      	blx	r4
   80bbc:	4629      	mov	r1, r5
   80bbe:	2030      	movs	r0, #48	; 0x30
   80bc0:	47a0      	blx	r4
   80bc2:	4629      	mov	r1, r5
   80bc4:	2039      	movs	r0, #57	; 0x39
   80bc6:	47a0      	blx	r4
   80bc8:	4629      	mov	r1, r5
   80bca:	203a      	movs	r0, #58	; 0x3a
   80bcc:	47a0      	blx	r4
   80bce:	4629      	mov	r1, r5
   80bd0:	203b      	movs	r0, #59	; 0x3b
   80bd2:	47a0      	blx	r4
   80bd4:	4629      	mov	r1, r5
   80bd6:	203c      	movs	r0, #60	; 0x3c
   80bd8:	47a0      	blx	r4
   80bda:	4629      	mov	r1, r5
   80bdc:	203d      	movs	r0, #61	; 0x3d
   80bde:	47a0      	blx	r4
   80be0:	4629      	mov	r1, r5
   80be2:	203e      	movs	r0, #62	; 0x3e
   80be4:	47a0      	blx	r4
   80be6:	4629      	mov	r1, r5
   80be8:	203f      	movs	r0, #63	; 0x3f
   80bea:	47a0      	blx	r4
   80bec:	4e1e      	ldr	r6, [pc, #120]	; (80c68 <board_init+0x11c>)
   80bee:	4631      	mov	r1, r6
   80bf0:	2026      	movs	r0, #38	; 0x26
   80bf2:	47a0      	blx	r4
   80bf4:	4629      	mov	r1, r5
   80bf6:	2033      	movs	r0, #51	; 0x33
   80bf8:	47a0      	blx	r4
   80bfa:	4629      	mov	r1, r5
   80bfc:	2037      	movs	r0, #55	; 0x37
   80bfe:	47a0      	blx	r4
   80c00:	4629      	mov	r1, r5
   80c02:	2050      	movs	r0, #80	; 0x50
   80c04:	47a0      	blx	r4
   80c06:	4631      	mov	r1, r6
   80c08:	2028      	movs	r0, #40	; 0x28
   80c0a:	47a0      	blx	r4
   80c0c:	f04f 5140 	mov.w	r1, #805306368	; 0x30000000
   80c10:	2053      	movs	r0, #83	; 0x53
   80c12:	47a0      	blx	r4
   80c14:	f105 5500 	add.w	r5, r5, #536870912	; 0x20000000
   80c18:	4629      	mov	r1, r5
   80c1a:	2018      	movs	r0, #24
   80c1c:	47a0      	blx	r4
   80c1e:	4629      	mov	r1, r5
   80c20:	2002      	movs	r0, #2
   80c22:	47a0      	blx	r4
   80c24:	f04f 6100 	mov.w	r1, #134217728	; 0x8000000
   80c28:	200d      	movs	r0, #13
   80c2a:	47a0      	blx	r4
   80c2c:	f04f 6100 	mov.w	r1, #134217728	; 0x8000000
   80c30:	200e      	movs	r0, #14
   80c32:	47a0      	blx	r4
   80c34:	f04f 6100 	mov.w	r1, #134217728	; 0x8000000
   80c38:	200f      	movs	r0, #15
   80c3a:	47a0      	blx	r4
   80c3c:	f04f 5180 	mov.w	r1, #268435456	; 0x10000000
   80c40:	204e      	movs	r0, #78	; 0x4e
   80c42:	47a0      	blx	r4
   80c44:	bd70      	pop	{r4, r5, r6, pc}
   80c46:	bf00      	nop
   80c48:	400e1250 	.word	0x400e1250
   80c4c:	00081991 	.word	0x00081991
   80c50:	0008153d 	.word	0x0008153d
   80c54:	28000073 	.word	0x28000073
   80c58:	28000053 	.word	0x28000053
   80c5c:	400e0c00 	.word	0x400e0c00
   80c60:	00081611 	.word	0x00081611
   80c64:	08000001 	.word	0x08000001
   80c68:	10000001 	.word	0x10000001

00080c6c <aat31xx_set_backlight>:
   80c6c:	b470      	push	{r4, r5, r6}
   80c6e:	b083      	sub	sp, #12
   80c70:	2820      	cmp	r0, #32
   80c72:	bf28      	it	cs
   80c74:	2020      	movcs	r0, #32
   80c76:	2800      	cmp	r0, #0
   80c78:	bf08      	it	eq
   80c7a:	2001      	moveq	r0, #1
   80c7c:	2100      	movs	r1, #0
   80c7e:	4e10      	ldr	r6, [pc, #64]	; (80cc0 <aat31xx_set_backlight+0x54>)
   80c80:	f44f 2500 	mov.w	r5, #524288	; 0x80000
   80c84:	2418      	movs	r4, #24
   80c86:	6375      	str	r5, [r6, #52]	; 0x34
   80c88:	9401      	str	r4, [sp, #4]
   80c8a:	9b01      	ldr	r3, [sp, #4]
   80c8c:	1e5a      	subs	r2, r3, #1
   80c8e:	9201      	str	r2, [sp, #4]
   80c90:	2b00      	cmp	r3, #0
   80c92:	d1fa      	bne.n	80c8a <aat31xx_set_backlight+0x1e>
   80c94:	6335      	str	r5, [r6, #48]	; 0x30
   80c96:	9401      	str	r4, [sp, #4]
   80c98:	9b01      	ldr	r3, [sp, #4]
   80c9a:	1e5a      	subs	r2, r3, #1
   80c9c:	9201      	str	r2, [sp, #4]
   80c9e:	2b00      	cmp	r3, #0
   80ca0:	d1fa      	bne.n	80c98 <aat31xx_set_backlight+0x2c>
   80ca2:	3101      	adds	r1, #1
   80ca4:	4281      	cmp	r1, r0
   80ca6:	d3ee      	bcc.n	80c86 <aat31xx_set_backlight+0x1a>
   80ca8:	f44f 3300 	mov.w	r3, #131072	; 0x20000
   80cac:	9301      	str	r3, [sp, #4]
   80cae:	9b01      	ldr	r3, [sp, #4]
   80cb0:	1e5a      	subs	r2, r3, #1
   80cb2:	9201      	str	r2, [sp, #4]
   80cb4:	2b00      	cmp	r3, #0
   80cb6:	d1fa      	bne.n	80cae <aat31xx_set_backlight+0x42>
   80cb8:	b003      	add	sp, #12
   80cba:	bc70      	pop	{r4, r5, r6}
   80cbc:	4770      	bx	lr
   80cbe:	bf00      	nop
   80cc0:	400e1000 	.word	0x400e1000

00080cc4 <aat31xx_disable_backlight>:
   80cc4:	b082      	sub	sp, #8
   80cc6:	f44f 2200 	mov.w	r2, #524288	; 0x80000
   80cca:	4b06      	ldr	r3, [pc, #24]	; (80ce4 <aat31xx_disable_backlight+0x20>)
   80ccc:	635a      	str	r2, [r3, #52]	; 0x34
   80cce:	f44f 3300 	mov.w	r3, #131072	; 0x20000
   80cd2:	9301      	str	r3, [sp, #4]
   80cd4:	9b01      	ldr	r3, [sp, #4]
   80cd6:	1e5a      	subs	r2, r3, #1
   80cd8:	9201      	str	r2, [sp, #4]
   80cda:	2b00      	cmp	r3, #0
   80cdc:	d1fa      	bne.n	80cd4 <aat31xx_disable_backlight+0x10>
   80cde:	b002      	add	sp, #8
   80ce0:	4770      	bx	lr
   80ce2:	bf00      	nop
   80ce4:	400e1000 	.word	0x400e1000

00080ce8 <hx8347a_delay>:
   80ce8:	b082      	sub	sp, #8
   80cea:	2300      	movs	r3, #0
   80cec:	9301      	str	r3, [sp, #4]
   80cee:	9b01      	ldr	r3, [sp, #4]
   80cf0:	4298      	cmp	r0, r3
   80cf2:	d911      	bls.n	80d18 <hx8347a_delay+0x30>
   80cf4:	2100      	movs	r1, #0
   80cf6:	4a09      	ldr	r2, [pc, #36]	; (80d1c <hx8347a_delay+0x34>)
   80cf8:	9101      	str	r1, [sp, #4]
   80cfa:	9b01      	ldr	r3, [sp, #4]
   80cfc:	4293      	cmp	r3, r2
   80cfe:	d805      	bhi.n	80d0c <hx8347a_delay+0x24>
   80d00:	9b01      	ldr	r3, [sp, #4]
   80d02:	3301      	adds	r3, #1
   80d04:	9301      	str	r3, [sp, #4]
   80d06:	9b01      	ldr	r3, [sp, #4]
   80d08:	4293      	cmp	r3, r2
   80d0a:	d9f9      	bls.n	80d00 <hx8347a_delay+0x18>
   80d0c:	9b01      	ldr	r3, [sp, #4]
   80d0e:	3301      	adds	r3, #1
   80d10:	9301      	str	r3, [sp, #4]
   80d12:	9b01      	ldr	r3, [sp, #4]
   80d14:	4283      	cmp	r3, r0
   80d16:	d3ef      	bcc.n	80cf8 <hx8347a_delay+0x10>
   80d18:	b002      	add	sp, #8
   80d1a:	4770      	bx	lr
   80d1c:	0001869f 	.word	0x0001869f

00080d20 <hx8347a_check_box_coordinates>:
   80d20:	b430      	push	{r4, r5}
   80d22:	6804      	ldr	r4, [r0, #0]
   80d24:	2cef      	cmp	r4, #239	; 0xef
   80d26:	bf84      	itt	hi
   80d28:	24ef      	movhi	r4, #239	; 0xef
   80d2a:	6004      	strhi	r4, [r0, #0]
   80d2c:	6814      	ldr	r4, [r2, #0]
   80d2e:	2cef      	cmp	r4, #239	; 0xef
   80d30:	bf84      	itt	hi
   80d32:	24ef      	movhi	r4, #239	; 0xef
   80d34:	6014      	strhi	r4, [r2, #0]
   80d36:	680c      	ldr	r4, [r1, #0]
   80d38:	f5b4 7fa0 	cmp.w	r4, #320	; 0x140
   80d3c:	bf24      	itt	cs
   80d3e:	f240 143f 	movwcs	r4, #319	; 0x13f
   80d42:	600c      	strcs	r4, [r1, #0]
   80d44:	681c      	ldr	r4, [r3, #0]
   80d46:	f5b4 7fa0 	cmp.w	r4, #320	; 0x140
   80d4a:	bf24      	itt	cs
   80d4c:	f240 143f 	movwcs	r4, #319	; 0x13f
   80d50:	601c      	strcs	r4, [r3, #0]
   80d52:	6804      	ldr	r4, [r0, #0]
   80d54:	6815      	ldr	r5, [r2, #0]
   80d56:	42ac      	cmp	r4, r5
   80d58:	bf84      	itt	hi
   80d5a:	6005      	strhi	r5, [r0, #0]
   80d5c:	6014      	strhi	r4, [r2, #0]
   80d5e:	680a      	ldr	r2, [r1, #0]
   80d60:	6818      	ldr	r0, [r3, #0]
   80d62:	4282      	cmp	r2, r0
   80d64:	bf84      	itt	hi
   80d66:	6008      	strhi	r0, [r1, #0]
   80d68:	601a      	strhi	r2, [r3, #0]
   80d6a:	bc30      	pop	{r4, r5}
   80d6c:	4770      	bx	lr
   80d6e:	bf00      	nop

00080d70 <hx8347a_write_ram_buffer>:
   80d70:	b470      	push	{r4, r5, r6}
   80d72:	f031 0607 	bics.w	r6, r1, #7
   80d76:	d018      	beq.n	80daa <hx8347a_write_ram_buffer+0x3a>
   80d78:	4603      	mov	r3, r0
   80d7a:	2400      	movs	r4, #0
   80d7c:	4a12      	ldr	r2, [pc, #72]	; (80dc8 <hx8347a_write_ram_buffer+0x58>)
   80d7e:	f830 5014 	ldrh.w	r5, [r0, r4, lsl #1]
   80d82:	8015      	strh	r5, [r2, #0]
   80d84:	885d      	ldrh	r5, [r3, #2]
   80d86:	8015      	strh	r5, [r2, #0]
   80d88:	889d      	ldrh	r5, [r3, #4]
   80d8a:	8015      	strh	r5, [r2, #0]
   80d8c:	88dd      	ldrh	r5, [r3, #6]
   80d8e:	8015      	strh	r5, [r2, #0]
   80d90:	891d      	ldrh	r5, [r3, #8]
   80d92:	8015      	strh	r5, [r2, #0]
   80d94:	895d      	ldrh	r5, [r3, #10]
   80d96:	8015      	strh	r5, [r2, #0]
   80d98:	899d      	ldrh	r5, [r3, #12]
   80d9a:	8015      	strh	r5, [r2, #0]
   80d9c:	89dd      	ldrh	r5, [r3, #14]
   80d9e:	8015      	strh	r5, [r2, #0]
   80da0:	3408      	adds	r4, #8
   80da2:	3310      	adds	r3, #16
   80da4:	42b4      	cmp	r4, r6
   80da6:	d3ea      	bcc.n	80d7e <hx8347a_write_ram_buffer+0xe>
   80da8:	e000      	b.n	80dac <hx8347a_write_ram_buffer+0x3c>
   80daa:	2400      	movs	r4, #0
   80dac:	42a1      	cmp	r1, r4
   80dae:	d909      	bls.n	80dc4 <hx8347a_write_ram_buffer+0x54>
   80db0:	eb00 0444 	add.w	r4, r0, r4, lsl #1
   80db4:	eb00 0041 	add.w	r0, r0, r1, lsl #1
   80db8:	4a03      	ldr	r2, [pc, #12]	; (80dc8 <hx8347a_write_ram_buffer+0x58>)
   80dba:	f834 3b02 	ldrh.w	r3, [r4], #2
   80dbe:	8013      	strh	r3, [r2, #0]
   80dc0:	4284      	cmp	r4, r0
   80dc2:	d1fa      	bne.n	80dba <hx8347a_write_ram_buffer+0x4a>
   80dc4:	bc70      	pop	{r4, r5, r6}
   80dc6:	4770      	bx	lr
   80dc8:	62000002 	.word	0x62000002

00080dcc <hx8347a_display_on>:
   80dcc:	b5f8      	push	{r3, r4, r5, r6, r7, lr}
   80dce:	f04f 45c4 	mov.w	r5, #1644167168	; 0x62000000
   80dd2:	2390      	movs	r3, #144	; 0x90
   80dd4:	802b      	strh	r3, [r5, #0]
   80dd6:	4c0b      	ldr	r4, [pc, #44]	; (80e04 <hx8347a_display_on+0x38>)
   80dd8:	237f      	movs	r3, #127	; 0x7f
   80dda:	8023      	strh	r3, [r4, #0]
   80ddc:	2626      	movs	r6, #38	; 0x26
   80dde:	802e      	strh	r6, [r5, #0]
   80de0:	2304      	movs	r3, #4
   80de2:	8023      	strh	r3, [r4, #0]
   80de4:	2064      	movs	r0, #100	; 0x64
   80de6:	4f08      	ldr	r7, [pc, #32]	; (80e08 <hx8347a_display_on+0x3c>)
   80de8:	47b8      	blx	r7
   80dea:	802e      	strh	r6, [r5, #0]
   80dec:	2324      	movs	r3, #36	; 0x24
   80dee:	8023      	strh	r3, [r4, #0]
   80df0:	802e      	strh	r6, [r5, #0]
   80df2:	232c      	movs	r3, #44	; 0x2c
   80df4:	8023      	strh	r3, [r4, #0]
   80df6:	2064      	movs	r0, #100	; 0x64
   80df8:	47b8      	blx	r7
   80dfa:	802e      	strh	r6, [r5, #0]
   80dfc:	233c      	movs	r3, #60	; 0x3c
   80dfe:	8023      	strh	r3, [r4, #0]
   80e00:	bdf8      	pop	{r3, r4, r5, r6, r7, pc}
   80e02:	bf00      	nop
   80e04:	62000002 	.word	0x62000002
   80e08:	00080ce9 	.word	0x00080ce9

00080e0c <hx8347a_set_foreground_color>:
   80e0c:	4a04      	ldr	r2, [pc, #16]	; (80e20 <hx8347a_set_foreground_color+0x14>)
   80e0e:	1e93      	subs	r3, r2, #2
   80e10:	f502 72ef 	add.w	r2, r2, #478	; 0x1de
   80e14:	f823 0f02 	strh.w	r0, [r3, #2]!
   80e18:	4293      	cmp	r3, r2
   80e1a:	d1fb      	bne.n	80e14 <hx8347a_set_foreground_color+0x8>
   80e1c:	4770      	bx	lr
   80e1e:	bf00      	nop
   80e20:	200009d8 	.word	0x200009d8

00080e24 <hx8347a_set_window>:
   80e24:	b5f0      	push	{r4, r5, r6, r7, lr}
   80e26:	b2c7      	uxtb	r7, r0
   80e28:	b2ce      	uxtb	r6, r1
   80e2a:	f3c0 2e07 	ubfx	lr, r0, #8, #8
   80e2e:	f04f 45c4 	mov.w	r5, #1644167168	; 0x62000000
   80e32:	2402      	movs	r4, #2
   80e34:	802c      	strh	r4, [r5, #0]
   80e36:	f104 44c4 	add.w	r4, r4, #1644167168	; 0x62000000
   80e3a:	f8a4 e000 	strh.w	lr, [r4]
   80e3e:	fa1f fe87 	uxth.w	lr, r7
   80e42:	f04f 0c03 	mov.w	ip, #3
   80e46:	f8a5 c000 	strh.w	ip, [r5]
   80e4a:	f8a4 e000 	strh.w	lr, [r4]
   80e4e:	f3c1 2e07 	ubfx	lr, r1, #8, #8
   80e52:	f04f 0c06 	mov.w	ip, #6
   80e56:	f8a5 c000 	strh.w	ip, [r5]
   80e5a:	f8a4 e000 	strh.w	lr, [r4]
   80e5e:	fa1f fe86 	uxth.w	lr, r6
   80e62:	f04f 0c07 	mov.w	ip, #7
   80e66:	f8a5 c000 	strh.w	ip, [r5]
   80e6a:	f8a4 e000 	strh.w	lr, [r4]
   80e6e:	f102 3eff 	add.w	lr, r2, #4294967295
   80e72:	4470      	add	r0, lr
   80e74:	f3c0 2007 	ubfx	r0, r0, #8, #8
   80e78:	f04f 0e04 	mov.w	lr, #4
   80e7c:	f8a5 e000 	strh.w	lr, [r5]
   80e80:	8020      	strh	r0, [r4, #0]
   80e82:	3a01      	subs	r2, #1
   80e84:	443a      	add	r2, r7
   80e86:	b2d2      	uxtb	r2, r2
   80e88:	2005      	movs	r0, #5
   80e8a:	8028      	strh	r0, [r5, #0]
   80e8c:	8022      	strh	r2, [r4, #0]
   80e8e:	1e5a      	subs	r2, r3, #1
   80e90:	4411      	add	r1, r2
   80e92:	f3c1 2107 	ubfx	r1, r1, #8, #8
   80e96:	2208      	movs	r2, #8
   80e98:	802a      	strh	r2, [r5, #0]
   80e9a:	8021      	strh	r1, [r4, #0]
   80e9c:	3b01      	subs	r3, #1
   80e9e:	4433      	add	r3, r6
   80ea0:	b2db      	uxtb	r3, r3
   80ea2:	2209      	movs	r2, #9
   80ea4:	802a      	strh	r2, [r5, #0]
   80ea6:	8023      	strh	r3, [r4, #0]
   80ea8:	bdf0      	pop	{r4, r5, r6, r7, pc}
   80eaa:	bf00      	nop

00080eac <hx8347a_set_cursor_position>:
   80eac:	b430      	push	{r4, r5}
   80eae:	0a05      	lsrs	r5, r0, #8
   80eb0:	0a0c      	lsrs	r4, r1, #8
   80eb2:	f04f 42c4 	mov.w	r2, #1644167168	; 0x62000000
   80eb6:	2302      	movs	r3, #2
   80eb8:	8013      	strh	r3, [r2, #0]
   80eba:	f103 43c4 	add.w	r3, r3, #1644167168	; 0x62000000
   80ebe:	801d      	strh	r5, [r3, #0]
   80ec0:	b2c0      	uxtb	r0, r0
   80ec2:	2503      	movs	r5, #3
   80ec4:	8015      	strh	r5, [r2, #0]
   80ec6:	8018      	strh	r0, [r3, #0]
   80ec8:	2006      	movs	r0, #6
   80eca:	8010      	strh	r0, [r2, #0]
   80ecc:	801c      	strh	r4, [r3, #0]
   80ece:	b2c9      	uxtb	r1, r1
   80ed0:	2007      	movs	r0, #7
   80ed2:	8010      	strh	r0, [r2, #0]
   80ed4:	8019      	strh	r1, [r3, #0]
   80ed6:	bc30      	pop	{r4, r5}
   80ed8:	4770      	bx	lr
   80eda:	bf00      	nop

00080edc <hx8347a_init>:
   80edc:	e92d 4ff8 	stmdb	sp!, {r3, r4, r5, r6, r7, r8, r9, sl, fp, lr}
   80ee0:	2267      	movs	r2, #103	; 0x67
   80ee2:	f04f 43c4 	mov.w	r3, #1644167168	; 0x62000000
   80ee6:	801a      	strh	r2, [r3, #0]
   80ee8:	3302      	adds	r3, #2
   80eea:	881b      	ldrh	r3, [r3, #0]
   80eec:	b29b      	uxth	r3, r3
   80eee:	2b47      	cmp	r3, #71	; 0x47
   80ef0:	f040 80dd 	bne.w	810ae <hx8347a_init+0x1d2>
   80ef4:	4607      	mov	r7, r0
   80ef6:	f04f 45c4 	mov.w	r5, #1644167168	; 0x62000000
   80efa:	2319      	movs	r3, #25
   80efc:	802b      	strh	r3, [r5, #0]
   80efe:	4c6d      	ldr	r4, [pc, #436]	; (810b4 <hx8347a_init+0x1d8>)
   80f00:	f04f 0a49 	mov.w	sl, #73	; 0x49
   80f04:	f8a4 a000 	strh.w	sl, [r4]
   80f08:	2393      	movs	r3, #147	; 0x93
   80f0a:	802b      	strh	r3, [r5, #0]
   80f0c:	230c      	movs	r3, #12
   80f0e:	8023      	strh	r3, [r4, #0]
   80f10:	2344      	movs	r3, #68	; 0x44
   80f12:	802b      	strh	r3, [r5, #0]
   80f14:	f04f 034d 	mov.w	r3, #77	; 0x4d
   80f18:	8023      	strh	r3, [r4, #0]
   80f1a:	2345      	movs	r3, #69	; 0x45
   80f1c:	802b      	strh	r3, [r5, #0]
   80f1e:	f04f 0911 	mov.w	r9, #17
   80f22:	f8a4 9000 	strh.w	r9, [r4]
   80f26:	2320      	movs	r3, #32
   80f28:	802b      	strh	r3, [r5, #0]
   80f2a:	f04f 0b40 	mov.w	fp, #64	; 0x40
   80f2e:	f8a4 b000 	strh.w	fp, [r4]
   80f32:	231d      	movs	r3, #29
   80f34:	802b      	strh	r3, [r5, #0]
   80f36:	f04f 0307 	mov.w	r3, #7
   80f3a:	8023      	strh	r3, [r4, #0]
   80f3c:	231e      	movs	r3, #30
   80f3e:	802b      	strh	r3, [r5, #0]
   80f40:	2600      	movs	r6, #0
   80f42:	8026      	strh	r6, [r4, #0]
   80f44:	231f      	movs	r3, #31
   80f46:	802b      	strh	r3, [r5, #0]
   80f48:	f04f 0804 	mov.w	r8, #4
   80f4c:	f8a4 8000 	strh.w	r8, [r4]
   80f50:	231c      	movs	r3, #28
   80f52:	802b      	strh	r3, [r5, #0]
   80f54:	f8a4 8000 	strh.w	r8, [r4]
   80f58:	231b      	movs	r3, #27
   80f5a:	802b      	strh	r3, [r5, #0]
   80f5c:	2310      	movs	r3, #16
   80f5e:	8023      	strh	r3, [r4, #0]
   80f60:	2032      	movs	r0, #50	; 0x32
   80f62:	4b55      	ldr	r3, [pc, #340]	; (810b8 <hx8347a_init+0x1dc>)
   80f64:	4798      	blx	r3
   80f66:	2343      	movs	r3, #67	; 0x43
   80f68:	802b      	strh	r3, [r5, #0]
   80f6a:	2380      	movs	r3, #128	; 0x80
   80f6c:	8023      	strh	r3, [r4, #0]
   80f6e:	2032      	movs	r0, #50	; 0x32
   80f70:	4b51      	ldr	r3, [pc, #324]	; (810b8 <hx8347a_init+0x1dc>)
   80f72:	4798      	blx	r3
   80f74:	2346      	movs	r3, #70	; 0x46
   80f76:	802b      	strh	r3, [r5, #0]
   80f78:	2195      	movs	r1, #149	; 0x95
   80f7a:	8021      	strh	r1, [r4, #0]
   80f7c:	2247      	movs	r2, #71	; 0x47
   80f7e:	802a      	strh	r2, [r5, #0]
   80f80:	2251      	movs	r2, #81	; 0x51
   80f82:	8022      	strh	r2, [r4, #0]
   80f84:	2048      	movs	r0, #72	; 0x48
   80f86:	8028      	strh	r0, [r5, #0]
   80f88:	8026      	strh	r6, [r4, #0]
   80f8a:	f8a5 a000 	strh.w	sl, [r5]
   80f8e:	2036      	movs	r0, #54	; 0x36
   80f90:	8020      	strh	r0, [r4, #0]
   80f92:	204a      	movs	r0, #74	; 0x4a
   80f94:	8028      	strh	r0, [r5, #0]
   80f96:	f8a4 9000 	strh.w	r9, [r4]
   80f9a:	204b      	movs	r0, #75	; 0x4b
   80f9c:	8028      	strh	r0, [r5, #0]
   80f9e:	2066      	movs	r0, #102	; 0x66
   80fa0:	8020      	strh	r0, [r4, #0]
   80fa2:	204c      	movs	r0, #76	; 0x4c
   80fa4:	8028      	strh	r0, [r5, #0]
   80fa6:	f04f 0e14 	mov.w	lr, #20
   80faa:	f8a4 e000 	strh.w	lr, [r4]
   80fae:	f04f 0e4d 	mov.w	lr, #77	; 0x4d
   80fb2:	f8a5 e000 	strh.w	lr, [r5]
   80fb6:	f04f 0e77 	mov.w	lr, #119	; 0x77
   80fba:	f8a4 e000 	strh.w	lr, [r4]
   80fbe:	f04f 0e4e 	mov.w	lr, #78	; 0x4e
   80fc2:	f8a5 e000 	strh.w	lr, [r5]
   80fc6:	f04f 0e13 	mov.w	lr, #19
   80fca:	f8a4 e000 	strh.w	lr, [r4]
   80fce:	f04f 0e4f 	mov.w	lr, #79	; 0x4f
   80fd2:	f8a5 e000 	strh.w	lr, [r5]
   80fd6:	8020      	strh	r0, [r4, #0]
   80fd8:	2050      	movs	r0, #80	; 0x50
   80fda:	8028      	strh	r0, [r5, #0]
   80fdc:	8023      	strh	r3, [r4, #0]
   80fde:	802a      	strh	r2, [r5, #0]
   80fe0:	8023      	strh	r3, [r4, #0]
   80fe2:	2302      	movs	r3, #2
   80fe4:	802b      	strh	r3, [r5, #0]
   80fe6:	8026      	strh	r6, [r4, #0]
   80fe8:	2303      	movs	r3, #3
   80fea:	802b      	strh	r3, [r5, #0]
   80fec:	8026      	strh	r6, [r4, #0]
   80fee:	f8a5 8000 	strh.w	r8, [r5]
   80ff2:	8026      	strh	r6, [r4, #0]
   80ff4:	2305      	movs	r3, #5
   80ff6:	802b      	strh	r3, [r5, #0]
   80ff8:	23ef      	movs	r3, #239	; 0xef
   80ffa:	8023      	strh	r3, [r4, #0]
   80ffc:	2306      	movs	r3, #6
   80ffe:	802b      	strh	r3, [r5, #0]
   81000:	8026      	strh	r6, [r4, #0]
   81002:	f04f 0207 	mov.w	r2, #7
   81006:	802a      	strh	r2, [r5, #0]
   81008:	8026      	strh	r6, [r4, #0]
   8100a:	2208      	movs	r2, #8
   8100c:	802a      	strh	r2, [r5, #0]
   8100e:	2201      	movs	r2, #1
   81010:	8022      	strh	r2, [r4, #0]
   81012:	2009      	movs	r0, #9
   81014:	8028      	strh	r0, [r5, #0]
   81016:	203f      	movs	r0, #63	; 0x3f
   81018:	8020      	strh	r0, [r4, #0]
   8101a:	802a      	strh	r2, [r5, #0]
   8101c:	8023      	strh	r3, [r4, #0]
   8101e:	2016      	movs	r0, #22
   81020:	8028      	strh	r0, [r5, #0]
   81022:	20c8      	movs	r0, #200	; 0xc8
   81024:	8020      	strh	r0, [r4, #0]
   81026:	2023      	movs	r0, #35	; 0x23
   81028:	8028      	strh	r0, [r5, #0]
   8102a:	8021      	strh	r1, [r4, #0]
   8102c:	2024      	movs	r0, #36	; 0x24
   8102e:	8028      	strh	r0, [r5, #0]
   81030:	8021      	strh	r1, [r4, #0]
   81032:	2125      	movs	r1, #37	; 0x25
   81034:	8029      	strh	r1, [r5, #0]
   81036:	21ff      	movs	r1, #255	; 0xff
   81038:	8021      	strh	r1, [r4, #0]
   8103a:	2127      	movs	r1, #39	; 0x27
   8103c:	8029      	strh	r1, [r5, #0]
   8103e:	8023      	strh	r3, [r4, #0]
   81040:	2128      	movs	r1, #40	; 0x28
   81042:	8029      	strh	r1, [r5, #0]
   81044:	8023      	strh	r3, [r4, #0]
   81046:	2129      	movs	r1, #41	; 0x29
   81048:	8029      	strh	r1, [r5, #0]
   8104a:	8023      	strh	r3, [r4, #0]
   8104c:	212a      	movs	r1, #42	; 0x2a
   8104e:	8029      	strh	r1, [r5, #0]
   81050:	8023      	strh	r3, [r4, #0]
   81052:	212c      	movs	r1, #44	; 0x2c
   81054:	8029      	strh	r1, [r5, #0]
   81056:	8023      	strh	r3, [r4, #0]
   81058:	212d      	movs	r1, #45	; 0x2d
   8105a:	8029      	strh	r1, [r5, #0]
   8105c:	8023      	strh	r3, [r4, #0]
   8105e:	233a      	movs	r3, #58	; 0x3a
   81060:	802b      	strh	r3, [r5, #0]
   81062:	8022      	strh	r2, [r4, #0]
   81064:	233b      	movs	r3, #59	; 0x3b
   81066:	802b      	strh	r3, [r5, #0]
   81068:	8022      	strh	r2, [r4, #0]
   8106a:	233c      	movs	r3, #60	; 0x3c
   8106c:	802b      	strh	r3, [r5, #0]
   8106e:	23f0      	movs	r3, #240	; 0xf0
   81070:	8023      	strh	r3, [r4, #0]
   81072:	223d      	movs	r2, #61	; 0x3d
   81074:	802a      	strh	r2, [r5, #0]
   81076:	8026      	strh	r6, [r4, #0]
   81078:	223e      	movs	r2, #62	; 0x3e
   8107a:	802a      	strh	r2, [r5, #0]
   8107c:	2238      	movs	r2, #56	; 0x38
   8107e:	8022      	strh	r2, [r4, #0]
   81080:	f8a5 b000 	strh.w	fp, [r5]
   81084:	220f      	movs	r2, #15
   81086:	8022      	strh	r2, [r4, #0]
   81088:	2241      	movs	r2, #65	; 0x41
   8108a:	802a      	strh	r2, [r5, #0]
   8108c:	8023      	strh	r3, [r4, #0]
   8108e:	687b      	ldr	r3, [r7, #4]
   81090:	683a      	ldr	r2, [r7, #0]
   81092:	4631      	mov	r1, r6
   81094:	4630      	mov	r0, r6
   81096:	4c09      	ldr	r4, [pc, #36]	; (810bc <hx8347a_init+0x1e0>)
   81098:	47a0      	blx	r4
   8109a:	8938      	ldrh	r0, [r7, #8]
   8109c:	4b08      	ldr	r3, [pc, #32]	; (810c0 <hx8347a_init+0x1e4>)
   8109e:	4798      	blx	r3
   810a0:	4631      	mov	r1, r6
   810a2:	4630      	mov	r0, r6
   810a4:	4b07      	ldr	r3, [pc, #28]	; (810c4 <hx8347a_init+0x1e8>)
   810a6:	4798      	blx	r3
   810a8:	4630      	mov	r0, r6
   810aa:	e8bd 8ff8 	ldmia.w	sp!, {r3, r4, r5, r6, r7, r8, r9, sl, fp, pc}
   810ae:	2001      	movs	r0, #1
   810b0:	e8bd 8ff8 	ldmia.w	sp!, {r3, r4, r5, r6, r7, r8, r9, sl, fp, pc}
   810b4:	62000002 	.word	0x62000002
   810b8:	00080ce9 	.word	0x00080ce9
   810bc:	00080e25 	.word	0x00080e25
   810c0:	00080e0d 	.word	0x00080e0d
   810c4:	00080ead 	.word	0x00080ead

000810c8 <hx8347a_fill>:
   810c8:	b510      	push	{r4, lr}
   810ca:	4604      	mov	r4, r0
   810cc:	2100      	movs	r1, #0
   810ce:	4608      	mov	r0, r1
   810d0:	4b06      	ldr	r3, [pc, #24]	; (810ec <hx8347a_fill+0x24>)
   810d2:	4798      	blx	r3
   810d4:	2222      	movs	r2, #34	; 0x22
   810d6:	f04f 43c4 	mov.w	r3, #1644167168	; 0x62000000
   810da:	801a      	strh	r2, [r3, #0]
   810dc:	f44f 3396 	mov.w	r3, #76800	; 0x12c00
   810e0:	4a03      	ldr	r2, [pc, #12]	; (810f0 <hx8347a_fill+0x28>)
   810e2:	8014      	strh	r4, [r2, #0]
   810e4:	3b01      	subs	r3, #1
   810e6:	d1fc      	bne.n	810e2 <hx8347a_fill+0x1a>
   810e8:	bd10      	pop	{r4, pc}
   810ea:	bf00      	nop
   810ec:	00080ead 	.word	0x00080ead
   810f0:	62000002 	.word	0x62000002

000810f4 <hx8347a_draw_pixel>:
   810f4:	28ef      	cmp	r0, #239	; 0xef
   810f6:	d811      	bhi.n	8111c <hx8347a_draw_pixel+0x28>
   810f8:	f5b1 7fa0 	cmp.w	r1, #320	; 0x140
   810fc:	d210      	bcs.n	81120 <hx8347a_draw_pixel+0x2c>
   810fe:	b508      	push	{r3, lr}
   81100:	b289      	uxth	r1, r1
   81102:	b280      	uxth	r0, r0
   81104:	4b07      	ldr	r3, [pc, #28]	; (81124 <hx8347a_draw_pixel+0x30>)
   81106:	4798      	blx	r3
   81108:	2222      	movs	r2, #34	; 0x22
   8110a:	f04f 43c4 	mov.w	r3, #1644167168	; 0x62000000
   8110e:	801a      	strh	r2, [r3, #0]
   81110:	4b05      	ldr	r3, [pc, #20]	; (81128 <hx8347a_draw_pixel+0x34>)
   81112:	881a      	ldrh	r2, [r3, #0]
   81114:	4b05      	ldr	r3, [pc, #20]	; (8112c <hx8347a_draw_pixel+0x38>)
   81116:	801a      	strh	r2, [r3, #0]
   81118:	2000      	movs	r0, #0
   8111a:	bd08      	pop	{r3, pc}
   8111c:	2001      	movs	r0, #1
   8111e:	4770      	bx	lr
   81120:	2001      	movs	r0, #1
   81122:	4770      	bx	lr
   81124:	00080ead 	.word	0x00080ead
   81128:	200009d8 	.word	0x200009d8
   8112c:	62000002 	.word	0x62000002

00081130 <hx8347a_draw_filled_rectangle>:
   81130:	e92d 41f0 	stmdb	sp!, {r4, r5, r6, r7, r8, lr}
   81134:	b084      	sub	sp, #16
   81136:	9003      	str	r0, [sp, #12]
   81138:	9102      	str	r1, [sp, #8]
   8113a:	9201      	str	r2, [sp, #4]
   8113c:	aa04      	add	r2, sp, #16
   8113e:	f842 3d10 	str.w	r3, [r2, #-16]!
   81142:	4613      	mov	r3, r2
   81144:	aa01      	add	r2, sp, #4
   81146:	a902      	add	r1, sp, #8
   81148:	a803      	add	r0, sp, #12
   8114a:	4c21      	ldr	r4, [pc, #132]	; (811d0 <hx8347a_draw_filled_rectangle+0xa0>)
   8114c:	47a0      	blx	r4
   8114e:	9803      	ldr	r0, [sp, #12]
   81150:	9902      	ldr	r1, [sp, #8]
   81152:	9b00      	ldr	r3, [sp, #0]
   81154:	3301      	adds	r3, #1
   81156:	9a01      	ldr	r2, [sp, #4]
   81158:	3201      	adds	r2, #1
   8115a:	1a5b      	subs	r3, r3, r1
   8115c:	1a12      	subs	r2, r2, r0
   8115e:	4c1d      	ldr	r4, [pc, #116]	; (811d4 <hx8347a_draw_filled_rectangle+0xa4>)
   81160:	47a0      	blx	r4
   81162:	f8bd 1008 	ldrh.w	r1, [sp, #8]
   81166:	f8bd 000c 	ldrh.w	r0, [sp, #12]
   8116a:	4b1b      	ldr	r3, [pc, #108]	; (811d8 <hx8347a_draw_filled_rectangle+0xa8>)
   8116c:	4798      	blx	r3
   8116e:	2222      	movs	r2, #34	; 0x22
   81170:	f04f 43c4 	mov.w	r3, #1644167168	; 0x62000000
   81174:	801a      	strh	r2, [r3, #0]
   81176:	9a03      	ldr	r2, [sp, #12]
   81178:	9b01      	ldr	r3, [sp, #4]
   8117a:	1a9a      	subs	r2, r3, r2
   8117c:	9b00      	ldr	r3, [sp, #0]
   8117e:	f103 0801 	add.w	r8, r3, #1
   81182:	9b02      	ldr	r3, [sp, #8]
   81184:	ebc3 0808 	rsb	r8, r3, r8
   81188:	fb02 8808 	mla	r8, r2, r8, r8
   8118c:	4c13      	ldr	r4, [pc, #76]	; (811dc <hx8347a_draw_filled_rectangle+0xac>)
   8118e:	fba4 3408 	umull	r3, r4, r4, r8
   81192:	09e4      	lsrs	r4, r4, #7
   81194:	d007      	beq.n	811a6 <hx8347a_draw_filled_rectangle+0x76>
   81196:	4f12      	ldr	r7, [pc, #72]	; (811e0 <hx8347a_draw_filled_rectangle+0xb0>)
   81198:	26f0      	movs	r6, #240	; 0xf0
   8119a:	4d12      	ldr	r5, [pc, #72]	; (811e4 <hx8347a_draw_filled_rectangle+0xb4>)
   8119c:	4631      	mov	r1, r6
   8119e:	4638      	mov	r0, r7
   811a0:	47a8      	blx	r5
   811a2:	3c01      	subs	r4, #1
   811a4:	d1fa      	bne.n	8119c <hx8347a_draw_filled_rectangle+0x6c>
   811a6:	490d      	ldr	r1, [pc, #52]	; (811dc <hx8347a_draw_filled_rectangle+0xac>)
   811a8:	fba1 3108 	umull	r3, r1, r1, r8
   811ac:	09c9      	lsrs	r1, r1, #7
   811ae:	ebc1 1101 	rsb	r1, r1, r1, lsl #4
   811b2:	eba8 1101 	sub.w	r1, r8, r1, lsl #4
   811b6:	480a      	ldr	r0, [pc, #40]	; (811e0 <hx8347a_draw_filled_rectangle+0xb0>)
   811b8:	4b0a      	ldr	r3, [pc, #40]	; (811e4 <hx8347a_draw_filled_rectangle+0xb4>)
   811ba:	4798      	blx	r3
   811bc:	f44f 73a0 	mov.w	r3, #320	; 0x140
   811c0:	22f0      	movs	r2, #240	; 0xf0
   811c2:	2100      	movs	r1, #0
   811c4:	4608      	mov	r0, r1
   811c6:	4c03      	ldr	r4, [pc, #12]	; (811d4 <hx8347a_draw_filled_rectangle+0xa4>)
   811c8:	47a0      	blx	r4
   811ca:	b004      	add	sp, #16
   811cc:	e8bd 81f0 	ldmia.w	sp!, {r4, r5, r6, r7, r8, pc}
   811d0:	00080d21 	.word	0x00080d21
   811d4:	00080e25 	.word	0x00080e25
   811d8:	00080ead 	.word	0x00080ead
   811dc:	88888889 	.word	0x88888889
   811e0:	200009d8 	.word	0x200009d8
   811e4:	00080d71 	.word	0x00080d71

000811e8 <hx8347a_draw_string>:
   811e8:	e92d 4ff0 	stmdb	sp!, {r4, r5, r6, r7, r8, r9, sl, fp, lr}
   811ec:	b085      	sub	sp, #20
   811ee:	9003      	str	r0, [sp, #12]
   811f0:	9202      	str	r2, [sp, #8]
   811f2:	7813      	ldrb	r3, [r2, #0]
   811f4:	2b00      	cmp	r3, #0
   811f6:	d045      	beq.n	81284 <hx8347a_draw_string+0x9c>
   811f8:	468a      	mov	sl, r1
   811fa:	9001      	str	r0, [sp, #4]
   811fc:	f8df 8090 	ldr.w	r8, [pc, #144]	; 81290 <hx8347a_draw_string+0xa8>
   81200:	2b0a      	cmp	r3, #10
   81202:	d104      	bne.n	8120e <hx8347a_draw_string+0x26>
   81204:	f10a 0a10 	add.w	sl, sl, #16
   81208:	9b03      	ldr	r3, [sp, #12]
   8120a:	9301      	str	r3, [sp, #4]
   8120c:	e034      	b.n	81278 <hx8347a_draw_string+0x90>
   8120e:	eb03 0383 	add.w	r3, r3, r3, lsl #2
   81212:	4e1e      	ldr	r6, [pc, #120]	; (8128c <hx8347a_draw_string+0xa4>)
   81214:	eb06 0383 	add.w	r3, r6, r3, lsl #2
   81218:	f2a3 267f 	subw	r6, r3, #639	; 0x27f
   8121c:	9f01      	ldr	r7, [sp, #4]
   8121e:	463b      	mov	r3, r7
   81220:	330a      	adds	r3, #10
   81222:	9300      	str	r3, [sp, #0]
   81224:	f10a 0907 	add.w	r9, sl, #7
   81228:	2407      	movs	r4, #7
   8122a:	46b3      	mov	fp, r6
   8122c:	465d      	mov	r5, fp
   8122e:	f816 3c01 	ldrb.w	r3, [r6, #-1]
   81232:	4123      	asrs	r3, r4
   81234:	f013 0f01 	tst.w	r3, #1
   81238:	d003      	beq.n	81242 <hx8347a_draw_string+0x5a>
   8123a:	ebc4 0109 	rsb	r1, r4, r9
   8123e:	4638      	mov	r0, r7
   81240:	47c0      	blx	r8
   81242:	3c01      	subs	r4, #1
   81244:	f1b4 3fff 	cmp.w	r4, #4294967295
   81248:	d1f0      	bne.n	8122c <hx8347a_draw_string+0x44>
   8124a:	2407      	movs	r4, #7
   8124c:	f10a 0b0f 	add.w	fp, sl, #15
   81250:	782b      	ldrb	r3, [r5, #0]
   81252:	4123      	asrs	r3, r4
   81254:	f013 0f01 	tst.w	r3, #1
   81258:	d003      	beq.n	81262 <hx8347a_draw_string+0x7a>
   8125a:	ebc4 010b 	rsb	r1, r4, fp
   8125e:	4638      	mov	r0, r7
   81260:	47c0      	blx	r8
   81262:	3c01      	subs	r4, #1
   81264:	2c01      	cmp	r4, #1
   81266:	d1f3      	bne.n	81250 <hx8347a_draw_string+0x68>
   81268:	3602      	adds	r6, #2
   8126a:	3701      	adds	r7, #1
   8126c:	9b00      	ldr	r3, [sp, #0]
   8126e:	42bb      	cmp	r3, r7
   81270:	d1da      	bne.n	81228 <hx8347a_draw_string+0x40>
   81272:	9b01      	ldr	r3, [sp, #4]
   81274:	330c      	adds	r3, #12
   81276:	9301      	str	r3, [sp, #4]
   81278:	9a02      	ldr	r2, [sp, #8]
   8127a:	f812 3f01 	ldrb.w	r3, [r2, #1]!
   8127e:	9202      	str	r2, [sp, #8]
   81280:	2b00      	cmp	r3, #0
   81282:	d1bd      	bne.n	81200 <hx8347a_draw_string+0x18>
   81284:	b005      	add	sp, #20
   81286:	e8bd 8ff0 	ldmia.w	sp!, {r4, r5, r6, r7, r8, r9, sl, fp, pc}
   8128a:	bf00      	nop
   8128c:	000853ec 	.word	0x000853ec
   81290:	000810f5 	.word	0x000810f5

00081294 <ads7843_send_cmd>:
   81294:	b084      	sub	sp, #16
   81296:	2300      	movs	r3, #0
   81298:	f88d 3008 	strb.w	r3, [sp, #8]
   8129c:	f88d 3009 	strb.w	r3, [sp, #9]
   812a0:	f88d 300a 	strb.w	r3, [sp, #10]
   812a4:	f88d 0004 	strb.w	r0, [sp, #4]
   812a8:	f88d 3005 	strb.w	r3, [sp, #5]
   812ac:	f88d 3006 	strb.w	r3, [sp, #6]
   812b0:	9303      	str	r3, [sp, #12]
   812b2:	9b03      	ldr	r3, [sp, #12]
   812b4:	2b02      	cmp	r3, #2
   812b6:	d903      	bls.n	812c0 <ads7843_send_cmd+0x2c>
   812b8:	e016      	b.n	812e8 <ads7843_send_cmd+0x54>
   812ba:	3b01      	subs	r3, #1
   812bc:	d103      	bne.n	812c6 <ads7843_send_cmd+0x32>
   812be:	e038      	b.n	81332 <ads7843_send_cmd+0x9e>
   812c0:	491e      	ldr	r1, [pc, #120]	; (8133c <ads7843_send_cmd+0xa8>)
   812c2:	f643 2399 	movw	r3, #15001	; 0x3a99
   812c6:	690a      	ldr	r2, [r1, #16]
   812c8:	f012 0f02 	tst.w	r2, #2
   812cc:	d0f5      	beq.n	812ba <ads7843_send_cmd+0x26>
   812ce:	9b03      	ldr	r3, [sp, #12]
   812d0:	aa04      	add	r2, sp, #16
   812d2:	4413      	add	r3, r2
   812d4:	f813 3c0c 	ldrb.w	r3, [r3, #-12]
   812d8:	b2db      	uxtb	r3, r3
   812da:	60cb      	str	r3, [r1, #12]
   812dc:	9b03      	ldr	r3, [sp, #12]
   812de:	3301      	adds	r3, #1
   812e0:	9303      	str	r3, [sp, #12]
   812e2:	9b03      	ldr	r3, [sp, #12]
   812e4:	2b02      	cmp	r3, #2
   812e6:	d9ec      	bls.n	812c2 <ads7843_send_cmd+0x2e>
   812e8:	2300      	movs	r3, #0
   812ea:	9303      	str	r3, [sp, #12]
   812ec:	9b03      	ldr	r3, [sp, #12]
   812ee:	2b02      	cmp	r3, #2
   812f0:	d903      	bls.n	812fa <ads7843_send_cmd+0x66>
   812f2:	e016      	b.n	81322 <ads7843_send_cmd+0x8e>
   812f4:	3b01      	subs	r3, #1
   812f6:	d103      	bne.n	81300 <ads7843_send_cmd+0x6c>
   812f8:	e01d      	b.n	81336 <ads7843_send_cmd+0xa2>
   812fa:	4910      	ldr	r1, [pc, #64]	; (8133c <ads7843_send_cmd+0xa8>)
   812fc:	f643 2399 	movw	r3, #15001	; 0x3a99
   81300:	690a      	ldr	r2, [r1, #16]
   81302:	f012 0f01 	tst.w	r2, #1
   81306:	d0f5      	beq.n	812f4 <ads7843_send_cmd+0x60>
   81308:	688a      	ldr	r2, [r1, #8]
   8130a:	b2d2      	uxtb	r2, r2
   8130c:	9b03      	ldr	r3, [sp, #12]
   8130e:	a804      	add	r0, sp, #16
   81310:	4403      	add	r3, r0
   81312:	f803 2c08 	strb.w	r2, [r3, #-8]
   81316:	9b03      	ldr	r3, [sp, #12]
   81318:	3301      	adds	r3, #1
   8131a:	9303      	str	r3, [sp, #12]
   8131c:	9b03      	ldr	r3, [sp, #12]
   8131e:	2b02      	cmp	r3, #2
   81320:	d9ec      	bls.n	812fc <ads7843_send_cmd+0x68>
   81322:	f89d 0009 	ldrb.w	r0, [sp, #9]
   81326:	f89d 300a 	ldrb.w	r3, [sp, #10]
   8132a:	ea43 2000 	orr.w	r0, r3, r0, lsl #8
   8132e:	0900      	lsrs	r0, r0, #4
   81330:	e002      	b.n	81338 <ads7843_send_cmd+0xa4>
   81332:	2001      	movs	r0, #1
   81334:	e000      	b.n	81338 <ads7843_send_cmd+0xa4>
   81336:	2001      	movs	r0, #1
   81338:	b004      	add	sp, #16
   8133a:	4770      	bx	lr
   8133c:	40008000 	.word	0x40008000

00081340 <ads7843_is_pressed>:
   81340:	4b03      	ldr	r3, [pc, #12]	; (81350 <ads7843_is_pressed+0x10>)
   81342:	6bd8      	ldr	r0, [r3, #60]	; 0x3c
   81344:	f080 7080 	eor.w	r0, r0, #16777216	; 0x1000000
   81348:	f3c0 6000 	ubfx	r0, r0, #24, #1
   8134c:	4770      	bx	lr
   8134e:	bf00      	nop
   81350:	400e0c00 	.word	0x400e0c00

00081354 <ads7843_set_handler>:
   81354:	b508      	push	{r3, lr}
   81356:	4602      	mov	r2, r0
   81358:	4903      	ldr	r1, [pc, #12]	; (81368 <ads7843_set_handler+0x14>)
   8135a:	2018      	movs	r0, #24
   8135c:	4b03      	ldr	r3, [pc, #12]	; (8136c <ads7843_set_handler+0x18>)
   8135e:	4798      	blx	r3
   81360:	2018      	movs	r0, #24
   81362:	4b03      	ldr	r3, [pc, #12]	; (81370 <ads7843_set_handler+0x1c>)
   81364:	4798      	blx	r3
   81366:	bd08      	pop	{r3, pc}
   81368:	28000001 	.word	0x28000001
   8136c:	0008179d 	.word	0x0008179d
   81370:	000816b1 	.word	0x000816b1

00081374 <ads7843_enable_interrupt>:
   81374:	b508      	push	{r3, lr}
   81376:	2018      	movs	r0, #24
   81378:	4b01      	ldr	r3, [pc, #4]	; (81380 <ads7843_enable_interrupt+0xc>)
   8137a:	4798      	blx	r3
   8137c:	bd08      	pop	{r3, pc}
   8137e:	bf00      	nop
   81380:	000816b1 	.word	0x000816b1

00081384 <ads7843_get_raw_point>:
   81384:	b570      	push	{r4, r5, r6, lr}
   81386:	4606      	mov	r6, r0
   81388:	460d      	mov	r5, r1
   8138a:	2018      	movs	r0, #24
   8138c:	4b07      	ldr	r3, [pc, #28]	; (813ac <ads7843_get_raw_point+0x28>)
   8138e:	4798      	blx	r3
   81390:	20d3      	movs	r0, #211	; 0xd3
   81392:	4c07      	ldr	r4, [pc, #28]	; (813b0 <ads7843_get_raw_point+0x2c>)
   81394:	47a0      	blx	r4
   81396:	6030      	str	r0, [r6, #0]
   81398:	2093      	movs	r0, #147	; 0x93
   8139a:	47a0      	blx	r4
   8139c:	6028      	str	r0, [r5, #0]
   8139e:	2090      	movs	r0, #144	; 0x90
   813a0:	47a0      	blx	r4
   813a2:	2018      	movs	r0, #24
   813a4:	4b03      	ldr	r3, [pc, #12]	; (813b4 <ads7843_get_raw_point+0x30>)
   813a6:	4798      	blx	r3
   813a8:	bd70      	pop	{r4, r5, r6, pc}
   813aa:	bf00      	nop
   813ac:	000816cd 	.word	0x000816cd
   813b0:	00081295 	.word	0x00081295
   813b4:	000816b1 	.word	0x000816b1

000813b8 <ads7843_init>:
   813b8:	b5f0      	push	{r4, r5, r6, r7, lr}
   813ba:	b085      	sub	sp, #20
   813bc:	ad04      	add	r5, sp, #16
   813be:	2302      	movs	r3, #2
   813c0:	f845 3d08 	str.w	r3, [r5, #-8]!
   813c4:	4c11      	ldr	r4, [pc, #68]	; (8140c <ads7843_init+0x54>)
   813c6:	4620      	mov	r0, r4
   813c8:	4b11      	ldr	r3, [pc, #68]	; (81410 <ads7843_init+0x58>)
   813ca:	4798      	blx	r3
   813cc:	2600      	movs	r6, #0
   813ce:	9600      	str	r6, [sp, #0]
   813d0:	4b10      	ldr	r3, [pc, #64]	; (81414 <ads7843_init+0x5c>)
   813d2:	4632      	mov	r2, r6
   813d4:	4629      	mov	r1, r5
   813d6:	4620      	mov	r0, r4
   813d8:	4f0f      	ldr	r7, [pc, #60]	; (81418 <ads7843_init+0x60>)
   813da:	47b8      	blx	r7
   813dc:	4629      	mov	r1, r5
   813de:	4620      	mov	r0, r4
   813e0:	4b0e      	ldr	r3, [pc, #56]	; (8141c <ads7843_init+0x64>)
   813e2:	4798      	blx	r3
   813e4:	2301      	movs	r3, #1
   813e6:	6023      	str	r3, [r4, #0]
   813e8:	9603      	str	r6, [sp, #12]
   813ea:	9a03      	ldr	r2, [sp, #12]
   813ec:	4b0c      	ldr	r3, [pc, #48]	; (81420 <ads7843_init+0x68>)
   813ee:	429a      	cmp	r2, r3
   813f0:	d806      	bhi.n	81400 <ads7843_init+0x48>
   813f2:	461a      	mov	r2, r3
   813f4:	9b03      	ldr	r3, [sp, #12]
   813f6:	3301      	adds	r3, #1
   813f8:	9303      	str	r3, [sp, #12]
   813fa:	9b03      	ldr	r3, [sp, #12]
   813fc:	4293      	cmp	r3, r2
   813fe:	d9f9      	bls.n	813f4 <ads7843_init+0x3c>
   81400:	2090      	movs	r0, #144	; 0x90
   81402:	4b08      	ldr	r3, [pc, #32]	; (81424 <ads7843_init+0x6c>)
   81404:	4798      	blx	r3
   81406:	2000      	movs	r0, #0
   81408:	b005      	add	sp, #20
   8140a:	bdf0      	pop	{r4, r5, r6, r7, pc}
   8140c:	40008000 	.word	0x40008000
   81410:	000809c1 	.word	0x000809c1
   81414:	000f4240 	.word	0x000f4240
   81418:	00080a15 	.word	0x00080a15
   8141c:	00080a95 	.word	0x00080a95
   81420:	0001869f 	.word	0x0001869f
   81424:	00081295 	.word	0x00081295

00081428 <smc_set_setup_timing>:
   81428:	eb01 0181 	add.w	r1, r1, r1, lsl #2
   8142c:	eb00 0081 	add.w	r0, r0, r1, lsl #2
   81430:	6702      	str	r2, [r0, #112]	; 0x70
   81432:	4770      	bx	lr

00081434 <smc_set_pulse_timing>:
   81434:	eb01 0181 	add.w	r1, r1, r1, lsl #2
   81438:	eb00 0081 	add.w	r0, r0, r1, lsl #2
   8143c:	6742      	str	r2, [r0, #116]	; 0x74
   8143e:	4770      	bx	lr

00081440 <smc_set_cycle_timing>:
   81440:	eb01 0181 	add.w	r1, r1, r1, lsl #2
   81444:	eb00 0081 	add.w	r0, r0, r1, lsl #2
   81448:	6782      	str	r2, [r0, #120]	; 0x78
   8144a:	4770      	bx	lr

0008144c <smc_set_mode>:
   8144c:	eb01 0181 	add.w	r1, r1, r1, lsl #2
   81450:	eb00 0081 	add.w	r0, r0, r1, lsl #2
   81454:	f8c0 2080 	str.w	r2, [r0, #128]	; 0x80
   81458:	4770      	bx	lr
   8145a:	bf00      	nop

0008145c <pio_set_peripheral>:
   8145c:	6442      	str	r2, [r0, #68]	; 0x44
   8145e:	f1b1 5f80 	cmp.w	r1, #268435456	; 0x10000000
   81462:	d016      	beq.n	81492 <pio_set_peripheral+0x36>
   81464:	d804      	bhi.n	81470 <pio_set_peripheral+0x14>
   81466:	b1c1      	cbz	r1, 8149a <pio_set_peripheral+0x3e>
   81468:	f1b1 6f00 	cmp.w	r1, #134217728	; 0x8000000
   8146c:	d00a      	beq.n	81484 <pio_set_peripheral+0x28>
   8146e:	e013      	b.n	81498 <pio_set_peripheral+0x3c>
   81470:	f1b1 5f40 	cmp.w	r1, #805306368	; 0x30000000
   81474:	d011      	beq.n	8149a <pio_set_peripheral+0x3e>
   81476:	f1b1 5f60 	cmp.w	r1, #939524096	; 0x38000000
   8147a:	d00e      	beq.n	8149a <pio_set_peripheral+0x3e>
   8147c:	f1b1 5f20 	cmp.w	r1, #671088640	; 0x28000000
   81480:	d10a      	bne.n	81498 <pio_set_peripheral+0x3c>
   81482:	4770      	bx	lr
   81484:	6f01      	ldr	r1, [r0, #112]	; 0x70
   81486:	6f03      	ldr	r3, [r0, #112]	; 0x70
   81488:	400b      	ands	r3, r1
   8148a:	ea23 0302 	bic.w	r3, r3, r2
   8148e:	6703      	str	r3, [r0, #112]	; 0x70
   81490:	e002      	b.n	81498 <pio_set_peripheral+0x3c>
   81492:	6f03      	ldr	r3, [r0, #112]	; 0x70
   81494:	4313      	orrs	r3, r2
   81496:	6703      	str	r3, [r0, #112]	; 0x70
   81498:	6042      	str	r2, [r0, #4]
   8149a:	4770      	bx	lr

0008149c <pio_set_input>:
   8149c:	6441      	str	r1, [r0, #68]	; 0x44
   8149e:	f012 0f01 	tst.w	r2, #1
   814a2:	bf14      	ite	ne
   814a4:	6641      	strne	r1, [r0, #100]	; 0x64
   814a6:	6601      	streq	r1, [r0, #96]	; 0x60
   814a8:	f012 0f0a 	tst.w	r2, #10
   814ac:	bf14      	ite	ne
   814ae:	6201      	strne	r1, [r0, #32]
   814b0:	6241      	streq	r1, [r0, #36]	; 0x24
   814b2:	f012 0f02 	tst.w	r2, #2
   814b6:	d002      	beq.n	814be <pio_set_input+0x22>
   814b8:	f8c0 1080 	str.w	r1, [r0, #128]	; 0x80
   814bc:	e004      	b.n	814c8 <pio_set_input+0x2c>
   814be:	f012 0f08 	tst.w	r2, #8
   814c2:	bf18      	it	ne
   814c4:	f8c0 1084 	strne.w	r1, [r0, #132]	; 0x84
   814c8:	6141      	str	r1, [r0, #20]
   814ca:	6001      	str	r1, [r0, #0]
   814cc:	4770      	bx	lr
   814ce:	bf00      	nop

000814d0 <pio_set_output>:
   814d0:	b410      	push	{r4}
   814d2:	6441      	str	r1, [r0, #68]	; 0x44
   814d4:	9c01      	ldr	r4, [sp, #4]
   814d6:	b10c      	cbz	r4, 814dc <pio_set_output+0xc>
   814d8:	6641      	str	r1, [r0, #100]	; 0x64
   814da:	e000      	b.n	814de <pio_set_output+0xe>
   814dc:	6601      	str	r1, [r0, #96]	; 0x60
   814de:	b10b      	cbz	r3, 814e4 <pio_set_output+0x14>
   814e0:	6501      	str	r1, [r0, #80]	; 0x50
   814e2:	e000      	b.n	814e6 <pio_set_output+0x16>
   814e4:	6541      	str	r1, [r0, #84]	; 0x54
   814e6:	b10a      	cbz	r2, 814ec <pio_set_output+0x1c>
   814e8:	6301      	str	r1, [r0, #48]	; 0x30
   814ea:	e000      	b.n	814ee <pio_set_output+0x1e>
   814ec:	6341      	str	r1, [r0, #52]	; 0x34
   814ee:	6101      	str	r1, [r0, #16]
   814f0:	6001      	str	r1, [r0, #0]
   814f2:	bc10      	pop	{r4}
   814f4:	4770      	bx	lr
   814f6:	bf00      	nop

000814f8 <pio_configure_interrupt>:
   814f8:	f012 0f10 	tst.w	r2, #16
   814fc:	d010      	beq.n	81520 <pio_configure_interrupt+0x28>
   814fe:	f8c0 10b0 	str.w	r1, [r0, #176]	; 0xb0
   81502:	f012 0f20 	tst.w	r2, #32
   81506:	bf14      	ite	ne
   81508:	f8c0 10d4 	strne.w	r1, [r0, #212]	; 0xd4
   8150c:	f8c0 10d0 	streq.w	r1, [r0, #208]	; 0xd0
   81510:	f012 0f40 	tst.w	r2, #64	; 0x40
   81514:	bf14      	ite	ne
   81516:	f8c0 10c0 	strne.w	r1, [r0, #192]	; 0xc0
   8151a:	f8c0 10c4 	streq.w	r1, [r0, #196]	; 0xc4
   8151e:	4770      	bx	lr
   81520:	f8c0 10b4 	str.w	r1, [r0, #180]	; 0xb4
   81524:	4770      	bx	lr
   81526:	bf00      	nop

00081528 <pio_enable_interrupt>:
   81528:	6cc3      	ldr	r3, [r0, #76]	; 0x4c
   8152a:	6401      	str	r1, [r0, #64]	; 0x40
   8152c:	4770      	bx	lr
   8152e:	bf00      	nop

00081530 <pio_disable_interrupt>:
   81530:	6441      	str	r1, [r0, #68]	; 0x44
   81532:	4770      	bx	lr

00081534 <pio_get_interrupt_status>:
   81534:	6cc0      	ldr	r0, [r0, #76]	; 0x4c
   81536:	4770      	bx	lr

00081538 <pio_get_interrupt_mask>:
   81538:	6c80      	ldr	r0, [r0, #72]	; 0x48
   8153a:	4770      	bx	lr

0008153c <pio_configure_pin>:
   8153c:	b570      	push	{r4, r5, r6, lr}
   8153e:	b082      	sub	sp, #8
   81540:	460d      	mov	r5, r1
   81542:	0943      	lsrs	r3, r0, #5
   81544:	f503 1300 	add.w	r3, r3, #2097152	; 0x200000
   81548:	f203 7306 	addw	r3, r3, #1798	; 0x706
   8154c:	025c      	lsls	r4, r3, #9
   8154e:	f001 43f0 	and.w	r3, r1, #2013265920	; 0x78000000
   81552:	f1b3 5f20 	cmp.w	r3, #671088640	; 0x28000000
   81556:	d030      	beq.n	815ba <pio_configure_pin+0x7e>
   81558:	d806      	bhi.n	81568 <pio_configure_pin+0x2c>
   8155a:	f1b3 6f00 	cmp.w	r3, #134217728	; 0x8000000
   8155e:	d00a      	beq.n	81576 <pio_configure_pin+0x3a>
   81560:	f1b3 5f80 	cmp.w	r3, #268435456	; 0x10000000
   81564:	d018      	beq.n	81598 <pio_configure_pin+0x5c>
   81566:	e049      	b.n	815fc <pio_configure_pin+0xc0>
   81568:	f1b3 5f40 	cmp.w	r3, #805306368	; 0x30000000
   8156c:	d030      	beq.n	815d0 <pio_configure_pin+0x94>
   8156e:	f1b3 5f60 	cmp.w	r3, #939524096	; 0x38000000
   81572:	d02d      	beq.n	815d0 <pio_configure_pin+0x94>
   81574:	e042      	b.n	815fc <pio_configure_pin+0xc0>
   81576:	f000 001f 	and.w	r0, r0, #31
   8157a:	2601      	movs	r6, #1
   8157c:	4086      	lsls	r6, r0
   8157e:	4632      	mov	r2, r6
   81580:	f04f 6100 	mov.w	r1, #134217728	; 0x8000000
   81584:	4620      	mov	r0, r4
   81586:	4b1f      	ldr	r3, [pc, #124]	; (81604 <pio_configure_pin+0xc8>)
   81588:	4798      	blx	r3
   8158a:	f015 0f01 	tst.w	r5, #1
   8158e:	bf14      	ite	ne
   81590:	6666      	strne	r6, [r4, #100]	; 0x64
   81592:	6626      	streq	r6, [r4, #96]	; 0x60
   81594:	2001      	movs	r0, #1
   81596:	e032      	b.n	815fe <pio_configure_pin+0xc2>
   81598:	f000 001f 	and.w	r0, r0, #31
   8159c:	2601      	movs	r6, #1
   8159e:	4086      	lsls	r6, r0
   815a0:	4632      	mov	r2, r6
   815a2:	f04f 5180 	mov.w	r1, #268435456	; 0x10000000
   815a6:	4620      	mov	r0, r4
   815a8:	4b16      	ldr	r3, [pc, #88]	; (81604 <pio_configure_pin+0xc8>)
   815aa:	4798      	blx	r3
   815ac:	f015 0f01 	tst.w	r5, #1
   815b0:	bf14      	ite	ne
   815b2:	6666      	strne	r6, [r4, #100]	; 0x64
   815b4:	6626      	streq	r6, [r4, #96]	; 0x60
   815b6:	2001      	movs	r0, #1
   815b8:	e021      	b.n	815fe <pio_configure_pin+0xc2>
   815ba:	f000 011f 	and.w	r1, r0, #31
   815be:	2601      	movs	r6, #1
   815c0:	462a      	mov	r2, r5
   815c2:	fa06 f101 	lsl.w	r1, r6, r1
   815c6:	4620      	mov	r0, r4
   815c8:	4b0f      	ldr	r3, [pc, #60]	; (81608 <pio_configure_pin+0xcc>)
   815ca:	4798      	blx	r3
   815cc:	4630      	mov	r0, r6
   815ce:	e016      	b.n	815fe <pio_configure_pin+0xc2>
   815d0:	f005 5260 	and.w	r2, r5, #939524096	; 0x38000000
   815d4:	f000 011f 	and.w	r1, r0, #31
   815d8:	2601      	movs	r6, #1
   815da:	ea05 0306 	and.w	r3, r5, r6
   815de:	9300      	str	r3, [sp, #0]
   815e0:	f3c5 0380 	ubfx	r3, r5, #2, #1
   815e4:	f1b2 5f60 	cmp.w	r2, #939524096	; 0x38000000
   815e8:	bf14      	ite	ne
   815ea:	2200      	movne	r2, #0
   815ec:	2201      	moveq	r2, #1
   815ee:	fa06 f101 	lsl.w	r1, r6, r1
   815f2:	4620      	mov	r0, r4
   815f4:	4c05      	ldr	r4, [pc, #20]	; (8160c <pio_configure_pin+0xd0>)
   815f6:	47a0      	blx	r4
   815f8:	4630      	mov	r0, r6
   815fa:	e000      	b.n	815fe <pio_configure_pin+0xc2>
   815fc:	2000      	movs	r0, #0
   815fe:	b002      	add	sp, #8
   81600:	bd70      	pop	{r4, r5, r6, pc}
   81602:	bf00      	nop
   81604:	0008145d 	.word	0x0008145d
   81608:	0008149d 	.word	0x0008149d
   8160c:	000814d1 	.word	0x000814d1

00081610 <pio_configure_pin_group>:
   81610:	b570      	push	{r4, r5, r6, lr}
   81612:	b082      	sub	sp, #8
   81614:	4605      	mov	r5, r0
   81616:	460e      	mov	r6, r1
   81618:	4614      	mov	r4, r2
   8161a:	f002 43f0 	and.w	r3, r2, #2013265920	; 0x78000000
   8161e:	f1b3 5f20 	cmp.w	r3, #671088640	; 0x28000000
   81622:	d026      	beq.n	81672 <pio_configure_pin_group+0x62>
   81624:	d806      	bhi.n	81634 <pio_configure_pin_group+0x24>
   81626:	f1b3 6f00 	cmp.w	r3, #134217728	; 0x8000000
   8162a:	d00a      	beq.n	81642 <pio_configure_pin_group+0x32>
   8162c:	f1b3 5f80 	cmp.w	r3, #268435456	; 0x10000000
   81630:	d013      	beq.n	8165a <pio_configure_pin_group+0x4a>
   81632:	e034      	b.n	8169e <pio_configure_pin_group+0x8e>
   81634:	f1b3 5f40 	cmp.w	r3, #805306368	; 0x30000000
   81638:	d01f      	beq.n	8167a <pio_configure_pin_group+0x6a>
   8163a:	f1b3 5f60 	cmp.w	r3, #939524096	; 0x38000000
   8163e:	d01c      	beq.n	8167a <pio_configure_pin_group+0x6a>
   81640:	e02d      	b.n	8169e <pio_configure_pin_group+0x8e>
   81642:	460a      	mov	r2, r1
   81644:	f04f 6100 	mov.w	r1, #134217728	; 0x8000000
   81648:	4b16      	ldr	r3, [pc, #88]	; (816a4 <pio_configure_pin_group+0x94>)
   8164a:	4798      	blx	r3
   8164c:	f014 0f01 	tst.w	r4, #1
   81650:	bf14      	ite	ne
   81652:	666e      	strne	r6, [r5, #100]	; 0x64
   81654:	662e      	streq	r6, [r5, #96]	; 0x60
   81656:	2001      	movs	r0, #1
   81658:	e022      	b.n	816a0 <pio_configure_pin_group+0x90>
   8165a:	460a      	mov	r2, r1
   8165c:	f04f 5180 	mov.w	r1, #268435456	; 0x10000000
   81660:	4b10      	ldr	r3, [pc, #64]	; (816a4 <pio_configure_pin_group+0x94>)
   81662:	4798      	blx	r3
   81664:	f014 0f01 	tst.w	r4, #1
   81668:	bf14      	ite	ne
   8166a:	666e      	strne	r6, [r5, #100]	; 0x64
   8166c:	662e      	streq	r6, [r5, #96]	; 0x60
   8166e:	2001      	movs	r0, #1
   81670:	e016      	b.n	816a0 <pio_configure_pin_group+0x90>
   81672:	4b0d      	ldr	r3, [pc, #52]	; (816a8 <pio_configure_pin_group+0x98>)
   81674:	4798      	blx	r3
   81676:	2001      	movs	r0, #1
   81678:	e012      	b.n	816a0 <pio_configure_pin_group+0x90>
   8167a:	f004 5260 	and.w	r2, r4, #939524096	; 0x38000000
   8167e:	f004 0301 	and.w	r3, r4, #1
   81682:	9300      	str	r3, [sp, #0]
   81684:	f3c4 0380 	ubfx	r3, r4, #2, #1
   81688:	f1b2 5f60 	cmp.w	r2, #939524096	; 0x38000000
   8168c:	bf14      	ite	ne
   8168e:	2200      	movne	r2, #0
   81690:	2201      	moveq	r2, #1
   81692:	4631      	mov	r1, r6
   81694:	4628      	mov	r0, r5
   81696:	4c05      	ldr	r4, [pc, #20]	; (816ac <pio_configure_pin_group+0x9c>)
   81698:	47a0      	blx	r4
   8169a:	2001      	movs	r0, #1
   8169c:	e000      	b.n	816a0 <pio_configure_pin_group+0x90>
   8169e:	2000      	movs	r0, #0
   816a0:	b002      	add	sp, #8
   816a2:	bd70      	pop	{r4, r5, r6, pc}
   816a4:	0008145d 	.word	0x0008145d
   816a8:	0008149d 	.word	0x0008149d
   816ac:	000814d1 	.word	0x000814d1

000816b0 <pio_enable_pin_interrupt>:
   816b0:	0943      	lsrs	r3, r0, #5
   816b2:	f503 1300 	add.w	r3, r3, #2097152	; 0x200000
   816b6:	f203 7306 	addw	r3, r3, #1798	; 0x706
   816ba:	025b      	lsls	r3, r3, #9
   816bc:	f000 001f 	and.w	r0, r0, #31
   816c0:	2201      	movs	r2, #1
   816c2:	fa02 f000 	lsl.w	r0, r2, r0
   816c6:	6418      	str	r0, [r3, #64]	; 0x40
   816c8:	4770      	bx	lr
   816ca:	bf00      	nop

000816cc <pio_disable_pin_interrupt>:
   816cc:	0943      	lsrs	r3, r0, #5
   816ce:	f503 1300 	add.w	r3, r3, #2097152	; 0x200000
   816d2:	f203 7306 	addw	r3, r3, #1798	; 0x706
   816d6:	025b      	lsls	r3, r3, #9
   816d8:	f000 001f 	and.w	r0, r0, #31
   816dc:	2201      	movs	r2, #1
   816de:	fa02 f000 	lsl.w	r0, r2, r0
   816e2:	6458      	str	r0, [r3, #68]	; 0x44
   816e4:	4770      	bx	lr
   816e6:	bf00      	nop

000816e8 <pio_get_pin_group>:
   816e8:	0940      	lsrs	r0, r0, #5
   816ea:	f500 1000 	add.w	r0, r0, #2097152	; 0x200000
   816ee:	f200 7006 	addw	r0, r0, #1798	; 0x706
   816f2:	0240      	lsls	r0, r0, #9
   816f4:	4770      	bx	lr
   816f6:	bf00      	nop

000816f8 <pio_get_pin_group_id>:
   816f8:	0940      	lsrs	r0, r0, #5
   816fa:	300a      	adds	r0, #10
   816fc:	4770      	bx	lr
   816fe:	bf00      	nop

00081700 <pio_get_pin_group_mask>:
   81700:	f000 001f 	and.w	r0, r0, #31
   81704:	2301      	movs	r3, #1
   81706:	fa03 f000 	lsl.w	r0, r3, r0
   8170a:	4770      	bx	lr

0008170c <pio_handler_process>:
   8170c:	e92d 41f0 	stmdb	sp!, {r4, r5, r6, r7, r8, lr}
   81710:	4604      	mov	r4, r0
   81712:	4688      	mov	r8, r1
   81714:	4b0e      	ldr	r3, [pc, #56]	; (81750 <pio_handler_process+0x44>)
   81716:	4798      	blx	r3
   81718:	4605      	mov	r5, r0
   8171a:	4620      	mov	r0, r4
   8171c:	4b0d      	ldr	r3, [pc, #52]	; (81754 <pio_handler_process+0x48>)
   8171e:	4798      	blx	r3
   81720:	4005      	ands	r5, r0
   81722:	d013      	beq.n	8174c <pio_handler_process+0x40>
   81724:	4c0c      	ldr	r4, [pc, #48]	; (81758 <pio_handler_process+0x4c>)
   81726:	f104 0660 	add.w	r6, r4, #96	; 0x60
   8172a:	6823      	ldr	r3, [r4, #0]
   8172c:	4543      	cmp	r3, r8
   8172e:	d108      	bne.n	81742 <pio_handler_process+0x36>
   81730:	6861      	ldr	r1, [r4, #4]
   81732:	4229      	tst	r1, r5
   81734:	d005      	beq.n	81742 <pio_handler_process+0x36>
   81736:	68e3      	ldr	r3, [r4, #12]
   81738:	4640      	mov	r0, r8
   8173a:	4798      	blx	r3
   8173c:	6863      	ldr	r3, [r4, #4]
   8173e:	ea25 0503 	bic.w	r5, r5, r3
   81742:	42b4      	cmp	r4, r6
   81744:	d002      	beq.n	8174c <pio_handler_process+0x40>
   81746:	3410      	adds	r4, #16
   81748:	2d00      	cmp	r5, #0
   8174a:	d1ee      	bne.n	8172a <pio_handler_process+0x1e>
   8174c:	e8bd 81f0 	ldmia.w	sp!, {r4, r5, r6, r7, r8, pc}
   81750:	00081535 	.word	0x00081535
   81754:	00081539 	.word	0x00081539
   81758:	20000bbc 	.word	0x20000bbc

0008175c <pio_handler_set>:
   8175c:	b5f8      	push	{r3, r4, r5, r6, r7, lr}
   8175e:	4c0c      	ldr	r4, [pc, #48]	; (81790 <pio_handler_set+0x34>)
   81760:	6824      	ldr	r4, [r4, #0]
   81762:	2c06      	cmp	r4, #6
   81764:	d811      	bhi.n	8178a <pio_handler_set+0x2e>
   81766:	4615      	mov	r5, r2
   81768:	4f0a      	ldr	r7, [pc, #40]	; (81794 <pio_handler_set+0x38>)
   8176a:	0126      	lsls	r6, r4, #4
   8176c:	19ba      	adds	r2, r7, r6
   8176e:	51b9      	str	r1, [r7, r6]
   81770:	6055      	str	r5, [r2, #4]
   81772:	6093      	str	r3, [r2, #8]
   81774:	9906      	ldr	r1, [sp, #24]
   81776:	60d1      	str	r1, [r2, #12]
   81778:	3401      	adds	r4, #1
   8177a:	4a05      	ldr	r2, [pc, #20]	; (81790 <pio_handler_set+0x34>)
   8177c:	6014      	str	r4, [r2, #0]
   8177e:	461a      	mov	r2, r3
   81780:	4629      	mov	r1, r5
   81782:	4b05      	ldr	r3, [pc, #20]	; (81798 <pio_handler_set+0x3c>)
   81784:	4798      	blx	r3
   81786:	2000      	movs	r0, #0
   81788:	bdf8      	pop	{r3, r4, r5, r6, r7, pc}
   8178a:	2001      	movs	r0, #1
   8178c:	bdf8      	pop	{r3, r4, r5, r6, r7, pc}
   8178e:	bf00      	nop
   81790:	20000bb8 	.word	0x20000bb8
   81794:	20000bbc 	.word	0x20000bbc
   81798:	000814f9 	.word	0x000814f9

0008179c <pio_handler_set_pin>:
   8179c:	e92d 41f0 	stmdb	sp!, {r4, r5, r6, r7, r8, lr}
   817a0:	b082      	sub	sp, #8
   817a2:	4604      	mov	r4, r0
   817a4:	460f      	mov	r7, r1
   817a6:	4690      	mov	r8, r2
   817a8:	4b0a      	ldr	r3, [pc, #40]	; (817d4 <pio_handler_set_pin+0x38>)
   817aa:	4798      	blx	r3
   817ac:	4605      	mov	r5, r0
   817ae:	4620      	mov	r0, r4
   817b0:	4b09      	ldr	r3, [pc, #36]	; (817d8 <pio_handler_set_pin+0x3c>)
   817b2:	4798      	blx	r3
   817b4:	4606      	mov	r6, r0
   817b6:	4620      	mov	r0, r4
   817b8:	4b08      	ldr	r3, [pc, #32]	; (817dc <pio_handler_set_pin+0x40>)
   817ba:	4798      	blx	r3
   817bc:	f8cd 8000 	str.w	r8, [sp]
   817c0:	463b      	mov	r3, r7
   817c2:	4602      	mov	r2, r0
   817c4:	4631      	mov	r1, r6
   817c6:	4628      	mov	r0, r5
   817c8:	4c05      	ldr	r4, [pc, #20]	; (817e0 <pio_handler_set_pin+0x44>)
   817ca:	47a0      	blx	r4
   817cc:	b002      	add	sp, #8
   817ce:	e8bd 81f0 	ldmia.w	sp!, {r4, r5, r6, r7, r8, pc}
   817d2:	bf00      	nop
   817d4:	000816e9 	.word	0x000816e9
   817d8:	000816f9 	.word	0x000816f9
   817dc:	00081701 	.word	0x00081701
   817e0:	0008175d 	.word	0x0008175d

000817e4 <PIOA_Handler>:
   817e4:	b508      	push	{r3, lr}
   817e6:	210a      	movs	r1, #10
   817e8:	4801      	ldr	r0, [pc, #4]	; (817f0 <PIOA_Handler+0xc>)
   817ea:	4b02      	ldr	r3, [pc, #8]	; (817f4 <PIOA_Handler+0x10>)
   817ec:	4798      	blx	r3
   817ee:	bd08      	pop	{r3, pc}
   817f0:	400e0c00 	.word	0x400e0c00
   817f4:	0008170d 	.word	0x0008170d

000817f8 <PIOB_Handler>:
   817f8:	b508      	push	{r3, lr}
   817fa:	210b      	movs	r1, #11
   817fc:	4801      	ldr	r0, [pc, #4]	; (81804 <PIOB_Handler+0xc>)
   817fe:	4b02      	ldr	r3, [pc, #8]	; (81808 <PIOB_Handler+0x10>)
   81800:	4798      	blx	r3
   81802:	bd08      	pop	{r3, pc}
   81804:	400e0e00 	.word	0x400e0e00
   81808:	0008170d 	.word	0x0008170d

0008180c <PIOC_Handler>:
   8180c:	b508      	push	{r3, lr}
   8180e:	210c      	movs	r1, #12
   81810:	4801      	ldr	r0, [pc, #4]	; (81818 <PIOC_Handler+0xc>)
   81812:	4b02      	ldr	r3, [pc, #8]	; (8181c <PIOC_Handler+0x10>)
   81814:	4798      	blx	r3
   81816:	bd08      	pop	{r3, pc}
   81818:	400e1000 	.word	0x400e1000
   8181c:	0008170d 	.word	0x0008170d

00081820 <pio_handler_set_priority>:
   81820:	b5f8      	push	{r3, r4, r5, r6, r7, lr}
   81822:	4605      	mov	r5, r0
   81824:	460c      	mov	r4, r1
   81826:	4617      	mov	r7, r2
   81828:	4b18      	ldr	r3, [pc, #96]	; (8188c <pio_handler_set_priority+0x6c>)
   8182a:	4798      	blx	r3
   8182c:	4606      	mov	r6, r0
   8182e:	f04f 31ff 	mov.w	r1, #4294967295
   81832:	4628      	mov	r0, r5
   81834:	4b16      	ldr	r3, [pc, #88]	; (81890 <pio_handler_set_priority+0x70>)
   81836:	4798      	blx	r3
   81838:	4628      	mov	r0, r5
   8183a:	4b16      	ldr	r3, [pc, #88]	; (81894 <pio_handler_set_priority+0x74>)
   8183c:	4798      	blx	r3
   8183e:	b2e2      	uxtb	r2, r4
   81840:	f002 031f 	and.w	r3, r2, #31
   81844:	2101      	movs	r1, #1
   81846:	4099      	lsls	r1, r3
   81848:	0963      	lsrs	r3, r4, #5
   8184a:	009b      	lsls	r3, r3, #2
   8184c:	f103 4360 	add.w	r3, r3, #3758096384	; 0xe0000000
   81850:	f503 4361 	add.w	r3, r3, #57600	; 0xe100
   81854:	f8c3 1080 	str.w	r1, [r3, #128]	; 0x80
   81858:	f8c3 1180 	str.w	r1, [r3, #384]	; 0x180
   8185c:	2c00      	cmp	r4, #0
   8185e:	da06      	bge.n	8186e <pio_handler_set_priority+0x4e>
   81860:	f002 020f 	and.w	r2, r2, #15
   81864:	013f      	lsls	r7, r7, #4
   81866:	b2ff      	uxtb	r7, r7
   81868:	480b      	ldr	r0, [pc, #44]	; (81898 <pio_handler_set_priority+0x78>)
   8186a:	5487      	strb	r7, [r0, r2]
   8186c:	e007      	b.n	8187e <pio_handler_set_priority+0x5e>
   8186e:	013f      	lsls	r7, r7, #4
   81870:	b2ff      	uxtb	r7, r7
   81872:	f104 4460 	add.w	r4, r4, #3758096384	; 0xe0000000
   81876:	f504 4461 	add.w	r4, r4, #57600	; 0xe100
   8187a:	f884 7300 	strb.w	r7, [r4, #768]	; 0x300
   8187e:	6019      	str	r1, [r3, #0]
   81880:	4631      	mov	r1, r6
   81882:	4628      	mov	r0, r5
   81884:	4b05      	ldr	r3, [pc, #20]	; (8189c <pio_handler_set_priority+0x7c>)
   81886:	4798      	blx	r3
   81888:	bdf8      	pop	{r3, r4, r5, r6, r7, pc}
   8188a:	bf00      	nop
   8188c:	00081539 	.word	0x00081539
   81890:	00081531 	.word	0x00081531
   81894:	00081535 	.word	0x00081535
   81898:	e000ed14 	.word	0xe000ed14
   8189c:	00081529 	.word	0x00081529

000818a0 <pmc_switch_mck_to_pllack>:
   818a0:	4a18      	ldr	r2, [pc, #96]	; (81904 <pmc_switch_mck_to_pllack+0x64>)
   818a2:	6b13      	ldr	r3, [r2, #48]	; 0x30
   818a4:	f023 0370 	bic.w	r3, r3, #112	; 0x70
   818a8:	4318      	orrs	r0, r3
   818aa:	6310      	str	r0, [r2, #48]	; 0x30
   818ac:	6e93      	ldr	r3, [r2, #104]	; 0x68
   818ae:	f013 0f08 	tst.w	r3, #8
   818b2:	d003      	beq.n	818bc <pmc_switch_mck_to_pllack+0x1c>
   818b4:	e009      	b.n	818ca <pmc_switch_mck_to_pllack+0x2a>
   818b6:	3b01      	subs	r3, #1
   818b8:	d103      	bne.n	818c2 <pmc_switch_mck_to_pllack+0x22>
   818ba:	e01e      	b.n	818fa <pmc_switch_mck_to_pllack+0x5a>
   818bc:	f44f 6300 	mov.w	r3, #2048	; 0x800
   818c0:	4910      	ldr	r1, [pc, #64]	; (81904 <pmc_switch_mck_to_pllack+0x64>)
   818c2:	6e8a      	ldr	r2, [r1, #104]	; 0x68
   818c4:	f012 0f08 	tst.w	r2, #8
   818c8:	d0f5      	beq.n	818b6 <pmc_switch_mck_to_pllack+0x16>
   818ca:	4a0e      	ldr	r2, [pc, #56]	; (81904 <pmc_switch_mck_to_pllack+0x64>)
   818cc:	6b13      	ldr	r3, [r2, #48]	; 0x30
   818ce:	f023 0303 	bic.w	r3, r3, #3
   818d2:	f043 0302 	orr.w	r3, r3, #2
   818d6:	6313      	str	r3, [r2, #48]	; 0x30
   818d8:	6e90      	ldr	r0, [r2, #104]	; 0x68
   818da:	f010 0008 	ands.w	r0, r0, #8
   818de:	d004      	beq.n	818ea <pmc_switch_mck_to_pllack+0x4a>
   818e0:	2000      	movs	r0, #0
   818e2:	4770      	bx	lr
   818e4:	3b01      	subs	r3, #1
   818e6:	d103      	bne.n	818f0 <pmc_switch_mck_to_pllack+0x50>
   818e8:	e009      	b.n	818fe <pmc_switch_mck_to_pllack+0x5e>
   818ea:	f44f 6300 	mov.w	r3, #2048	; 0x800
   818ee:	4905      	ldr	r1, [pc, #20]	; (81904 <pmc_switch_mck_to_pllack+0x64>)
   818f0:	6e8a      	ldr	r2, [r1, #104]	; 0x68
   818f2:	f012 0f08 	tst.w	r2, #8
   818f6:	d0f5      	beq.n	818e4 <pmc_switch_mck_to_pllack+0x44>
   818f8:	4770      	bx	lr
   818fa:	2001      	movs	r0, #1
   818fc:	4770      	bx	lr
   818fe:	2001      	movs	r0, #1
   81900:	4770      	bx	lr
   81902:	bf00      	nop
   81904:	400e0400 	.word	0x400e0400

00081908 <pmc_osc_enable_main_xtal>:
   81908:	4a08      	ldr	r2, [pc, #32]	; (8192c <pmc_osc_enable_main_xtal+0x24>)
   8190a:	6a13      	ldr	r3, [r2, #32]
   8190c:	f023 0303 	bic.w	r3, r3, #3
   81910:	f443 135c 	orr.w	r3, r3, #3604480	; 0x370000
   81914:	f043 0301 	orr.w	r3, r3, #1
   81918:	0200      	lsls	r0, r0, #8
   8191a:	b280      	uxth	r0, r0
   8191c:	4303      	orrs	r3, r0
   8191e:	6213      	str	r3, [r2, #32]
   81920:	6e93      	ldr	r3, [r2, #104]	; 0x68
   81922:	f013 0f01 	tst.w	r3, #1
   81926:	d0fb      	beq.n	81920 <pmc_osc_enable_main_xtal+0x18>
   81928:	4770      	bx	lr
   8192a:	bf00      	nop
   8192c:	400e0400 	.word	0x400e0400

00081930 <pmc_osc_is_ready_main_xtal>:
   81930:	4b02      	ldr	r3, [pc, #8]	; (8193c <pmc_osc_is_ready_main_xtal+0xc>)
   81932:	6e98      	ldr	r0, [r3, #104]	; 0x68
   81934:	f000 0001 	and.w	r0, r0, #1
   81938:	4770      	bx	lr
   8193a:	bf00      	nop
   8193c:	400e0400 	.word	0x400e0400

00081940 <pmc_osc_is_ready_mainck>:
   81940:	4b02      	ldr	r3, [pc, #8]	; (8194c <pmc_osc_is_ready_mainck+0xc>)
   81942:	6e98      	ldr	r0, [r3, #104]	; 0x68
   81944:	f400 3080 	and.w	r0, r0, #65536	; 0x10000
   81948:	4770      	bx	lr
   8194a:	bf00      	nop
   8194c:	400e0400 	.word	0x400e0400

00081950 <pmc_mainck_osc_select>:
   81950:	4b06      	ldr	r3, [pc, #24]	; (8196c <pmc_mainck_osc_select+0x1c>)
   81952:	6a1b      	ldr	r3, [r3, #32]
   81954:	b110      	cbz	r0, 8195c <pmc_mainck_osc_select+0xc>
   81956:	f043 7380 	orr.w	r3, r3, #16777216	; 0x1000000
   8195a:	e001      	b.n	81960 <pmc_mainck_osc_select+0x10>
   8195c:	f023 7380 	bic.w	r3, r3, #16777216	; 0x1000000
   81960:	f443 135c 	orr.w	r3, r3, #3604480	; 0x370000
   81964:	4a01      	ldr	r2, [pc, #4]	; (8196c <pmc_mainck_osc_select+0x1c>)
   81966:	6213      	str	r3, [r2, #32]
   81968:	4770      	bx	lr
   8196a:	bf00      	nop
   8196c:	400e0400 	.word	0x400e0400

00081970 <pmc_disable_pllack>:
   81970:	f04f 5200 	mov.w	r2, #536870912	; 0x20000000
   81974:	4b01      	ldr	r3, [pc, #4]	; (8197c <pmc_disable_pllack+0xc>)
   81976:	629a      	str	r2, [r3, #40]	; 0x28
   81978:	4770      	bx	lr
   8197a:	bf00      	nop
   8197c:	400e0400 	.word	0x400e0400

00081980 <pmc_is_locked_pllack>:
   81980:	4b02      	ldr	r3, [pc, #8]	; (8198c <pmc_is_locked_pllack+0xc>)
   81982:	6e98      	ldr	r0, [r3, #104]	; 0x68
   81984:	f000 0002 	and.w	r0, r0, #2
   81988:	4770      	bx	lr
   8198a:	bf00      	nop
   8198c:	400e0400 	.word	0x400e0400

00081990 <pmc_enable_periph_clk>:
   81990:	281d      	cmp	r0, #29
   81992:	d80e      	bhi.n	819b2 <pmc_enable_periph_clk+0x22>
   81994:	281f      	cmp	r0, #31
   81996:	d80e      	bhi.n	819b6 <pmc_enable_periph_clk+0x26>
   81998:	4b09      	ldr	r3, [pc, #36]	; (819c0 <pmc_enable_periph_clk+0x30>)
   8199a:	699a      	ldr	r2, [r3, #24]
   8199c:	2301      	movs	r3, #1
   8199e:	4083      	lsls	r3, r0
   819a0:	4393      	bics	r3, r2
   819a2:	d00a      	beq.n	819ba <pmc_enable_periph_clk+0x2a>
   819a4:	2301      	movs	r3, #1
   819a6:	fa03 f000 	lsl.w	r0, r3, r0
   819aa:	4b05      	ldr	r3, [pc, #20]	; (819c0 <pmc_enable_periph_clk+0x30>)
   819ac:	6118      	str	r0, [r3, #16]
   819ae:	2000      	movs	r0, #0
   819b0:	4770      	bx	lr
   819b2:	2001      	movs	r0, #1
   819b4:	4770      	bx	lr
   819b6:	2000      	movs	r0, #0
   819b8:	4770      	bx	lr
   819ba:	2000      	movs	r0, #0
   819bc:	4770      	bx	lr
   819be:	bf00      	nop
   819c0:	400e0400 	.word	0x400e0400

000819c4 <spi_enable_clock>:
   819c4:	b508      	push	{r3, lr}
   819c6:	2014      	movs	r0, #20
   819c8:	4b01      	ldr	r3, [pc, #4]	; (819d0 <spi_enable_clock+0xc>)
   819ca:	4798      	blx	r3
   819cc:	bd08      	pop	{r3, pc}
   819ce:	bf00      	nop
   819d0:	00081991 	.word	0x00081991

000819d4 <spi_set_peripheral_chip_select_value>:
   819d4:	6843      	ldr	r3, [r0, #4]
   819d6:	f423 2370 	bic.w	r3, r3, #983040	; 0xf0000
   819da:	6043      	str	r3, [r0, #4]
   819dc:	6843      	ldr	r3, [r0, #4]
   819de:	0409      	lsls	r1, r1, #16
   819e0:	f401 2170 	and.w	r1, r1, #983040	; 0xf0000
   819e4:	430b      	orrs	r3, r1
   819e6:	6043      	str	r3, [r0, #4]
   819e8:	4770      	bx	lr
   819ea:	bf00      	nop

000819ec <spi_set_delay_between_chip_select>:
   819ec:	6843      	ldr	r3, [r0, #4]
   819ee:	f023 437f 	bic.w	r3, r3, #4278190080	; 0xff000000
   819f2:	6043      	str	r3, [r0, #4]
   819f4:	6843      	ldr	r3, [r0, #4]
   819f6:	ea43 6101 	orr.w	r1, r3, r1, lsl #24
   819fa:	6041      	str	r1, [r0, #4]
   819fc:	4770      	bx	lr
   819fe:	bf00      	nop

00081a00 <spi_set_clock_polarity>:
   81a00:	b132      	cbz	r2, 81a10 <spi_set_clock_polarity+0x10>
   81a02:	eb00 0081 	add.w	r0, r0, r1, lsl #2
   81a06:	6b03      	ldr	r3, [r0, #48]	; 0x30
   81a08:	f043 0301 	orr.w	r3, r3, #1
   81a0c:	6303      	str	r3, [r0, #48]	; 0x30
   81a0e:	4770      	bx	lr
   81a10:	eb00 0081 	add.w	r0, r0, r1, lsl #2
   81a14:	6b03      	ldr	r3, [r0, #48]	; 0x30
   81a16:	f023 0301 	bic.w	r3, r3, #1
   81a1a:	6303      	str	r3, [r0, #48]	; 0x30
   81a1c:	4770      	bx	lr
   81a1e:	bf00      	nop

00081a20 <spi_set_clock_phase>:
   81a20:	b132      	cbz	r2, 81a30 <spi_set_clock_phase+0x10>
   81a22:	eb00 0081 	add.w	r0, r0, r1, lsl #2
   81a26:	6b03      	ldr	r3, [r0, #48]	; 0x30
   81a28:	f043 0302 	orr.w	r3, r3, #2
   81a2c:	6303      	str	r3, [r0, #48]	; 0x30
   81a2e:	4770      	bx	lr
   81a30:	eb00 0081 	add.w	r0, r0, r1, lsl #2
   81a34:	6b03      	ldr	r3, [r0, #48]	; 0x30
   81a36:	f023 0302 	bic.w	r3, r3, #2
   81a3a:	6303      	str	r3, [r0, #48]	; 0x30
   81a3c:	4770      	bx	lr
   81a3e:	bf00      	nop

00081a40 <spi_configure_cs_behavior>:
   81a40:	2a04      	cmp	r2, #4
   81a42:	d10a      	bne.n	81a5a <spi_configure_cs_behavior+0x1a>
   81a44:	eb00 0081 	add.w	r0, r0, r1, lsl #2
   81a48:	6b03      	ldr	r3, [r0, #48]	; 0x30
   81a4a:	f023 0308 	bic.w	r3, r3, #8
   81a4e:	6303      	str	r3, [r0, #48]	; 0x30
   81a50:	6b03      	ldr	r3, [r0, #48]	; 0x30
   81a52:	f043 0304 	orr.w	r3, r3, #4
   81a56:	6303      	str	r3, [r0, #48]	; 0x30
   81a58:	4770      	bx	lr
   81a5a:	b952      	cbnz	r2, 81a72 <spi_configure_cs_behavior+0x32>
   81a5c:	eb00 0081 	add.w	r0, r0, r1, lsl #2
   81a60:	6b03      	ldr	r3, [r0, #48]	; 0x30
   81a62:	f023 0308 	bic.w	r3, r3, #8
   81a66:	6303      	str	r3, [r0, #48]	; 0x30
   81a68:	6b03      	ldr	r3, [r0, #48]	; 0x30
   81a6a:	f023 0304 	bic.w	r3, r3, #4
   81a6e:	6303      	str	r3, [r0, #48]	; 0x30
   81a70:	4770      	bx	lr
   81a72:	2a08      	cmp	r2, #8
   81a74:	d105      	bne.n	81a82 <spi_configure_cs_behavior+0x42>
   81a76:	eb00 0081 	add.w	r0, r0, r1, lsl #2
   81a7a:	6b03      	ldr	r3, [r0, #48]	; 0x30
   81a7c:	f043 0308 	orr.w	r3, r3, #8
   81a80:	6303      	str	r3, [r0, #48]	; 0x30
   81a82:	4770      	bx	lr

00081a84 <spi_set_bits_per_transfer>:
   81a84:	eb00 0181 	add.w	r1, r0, r1, lsl #2
   81a88:	6b0b      	ldr	r3, [r1, #48]	; 0x30
   81a8a:	f023 03f0 	bic.w	r3, r3, #240	; 0xf0
   81a8e:	630b      	str	r3, [r1, #48]	; 0x30
   81a90:	6b0b      	ldr	r3, [r1, #48]	; 0x30
   81a92:	431a      	orrs	r2, r3
   81a94:	630a      	str	r2, [r1, #48]	; 0x30
   81a96:	4770      	bx	lr

00081a98 <spi_calc_baudrate_div>:
   81a98:	1e43      	subs	r3, r0, #1
   81a9a:	4419      	add	r1, r3
   81a9c:	fbb1 f0f0 	udiv	r0, r1, r0
   81aa0:	1e43      	subs	r3, r0, #1
   81aa2:	2bfe      	cmp	r3, #254	; 0xfe
   81aa4:	bf94      	ite	ls
   81aa6:	b200      	sxthls	r0, r0
   81aa8:	f04f 30ff 	movhi.w	r0, #4294967295
   81aac:	4770      	bx	lr
   81aae:	bf00      	nop

00081ab0 <spi_set_baudrate_div>:
   81ab0:	b16a      	cbz	r2, 81ace <spi_set_baudrate_div+0x1e>
   81ab2:	b410      	push	{r4}
   81ab4:	4614      	mov	r4, r2
   81ab6:	eb00 0181 	add.w	r1, r0, r1, lsl #2
   81aba:	6b0b      	ldr	r3, [r1, #48]	; 0x30
   81abc:	f423 437f 	bic.w	r3, r3, #65280	; 0xff00
   81ac0:	630b      	str	r3, [r1, #48]	; 0x30
   81ac2:	6b0a      	ldr	r2, [r1, #48]	; 0x30
   81ac4:	ea42 2204 	orr.w	r2, r2, r4, lsl #8
   81ac8:	630a      	str	r2, [r1, #48]	; 0x30
   81aca:	2000      	movs	r0, #0
   81acc:	e002      	b.n	81ad4 <spi_set_baudrate_div+0x24>
   81ace:	f04f 30ff 	mov.w	r0, #4294967295
   81ad2:	4770      	bx	lr
   81ad4:	bc10      	pop	{r4}
   81ad6:	4770      	bx	lr

00081ad8 <spi_set_transfer_delay>:
   81ad8:	b410      	push	{r4}
   81ada:	eb00 0181 	add.w	r1, r0, r1, lsl #2
   81ade:	6b08      	ldr	r0, [r1, #48]	; 0x30
   81ae0:	b280      	uxth	r0, r0
   81ae2:	6308      	str	r0, [r1, #48]	; 0x30
   81ae4:	6b0c      	ldr	r4, [r1, #48]	; 0x30
   81ae6:	ea44 6303 	orr.w	r3, r4, r3, lsl #24
   81aea:	ea43 4202 	orr.w	r2, r3, r2, lsl #16
   81aee:	630a      	str	r2, [r1, #48]	; 0x30
   81af0:	bc10      	pop	{r4}
   81af2:	4770      	bx	lr

00081af4 <uart_init>:
   81af4:	b410      	push	{r4}
   81af6:	23ac      	movs	r3, #172	; 0xac
   81af8:	6003      	str	r3, [r0, #0]
   81afa:	680b      	ldr	r3, [r1, #0]
   81afc:	684a      	ldr	r2, [r1, #4]
   81afe:	fbb3 f3f2 	udiv	r3, r3, r2
   81b02:	091b      	lsrs	r3, r3, #4
   81b04:	1e5c      	subs	r4, r3, #1
   81b06:	f64f 72fe 	movw	r2, #65534	; 0xfffe
   81b0a:	4294      	cmp	r4, r2
   81b0c:	d80a      	bhi.n	81b24 <uart_init+0x30>
   81b0e:	6203      	str	r3, [r0, #32]
   81b10:	688b      	ldr	r3, [r1, #8]
   81b12:	6043      	str	r3, [r0, #4]
   81b14:	f240 2302 	movw	r3, #514	; 0x202
   81b18:	f8c0 3120 	str.w	r3, [r0, #288]	; 0x120
   81b1c:	2350      	movs	r3, #80	; 0x50
   81b1e:	6003      	str	r3, [r0, #0]
   81b20:	2000      	movs	r0, #0
   81b22:	e000      	b.n	81b26 <uart_init+0x32>
   81b24:	2001      	movs	r0, #1
   81b26:	bc10      	pop	{r4}
   81b28:	4770      	bx	lr
   81b2a:	bf00      	nop

00081b2c <uart_write>:
   81b2c:	6943      	ldr	r3, [r0, #20]
   81b2e:	f013 0f02 	tst.w	r3, #2
   81b32:	bf1a      	itte	ne
   81b34:	61c1      	strne	r1, [r0, #28]
   81b36:	2000      	movne	r0, #0
   81b38:	2001      	moveq	r0, #1
   81b3a:	4770      	bx	lr

00081b3c <uart_read>:
   81b3c:	6943      	ldr	r3, [r0, #20]
   81b3e:	f013 0f01 	tst.w	r3, #1
   81b42:	bf1d      	ittte	ne
   81b44:	6983      	ldrne	r3, [r0, #24]
   81b46:	700b      	strbne	r3, [r1, #0]
   81b48:	2000      	movne	r0, #0
   81b4a:	2001      	moveq	r0, #1
   81b4c:	4770      	bx	lr
   81b4e:	bf00      	nop

00081b50 <usart_write>:
   81b50:	6943      	ldr	r3, [r0, #20]
   81b52:	f013 0f02 	tst.w	r3, #2
   81b56:	bf1d      	ittte	ne
   81b58:	f3c1 0108 	ubfxne	r1, r1, #0, #9
   81b5c:	61c1      	strne	r1, [r0, #28]
   81b5e:	2000      	movne	r0, #0
   81b60:	2001      	moveq	r0, #1
   81b62:	4770      	bx	lr

00081b64 <usart_read>:
   81b64:	6943      	ldr	r3, [r0, #20]
   81b66:	f013 0f01 	tst.w	r3, #1
   81b6a:	d005      	beq.n	81b78 <usart_read+0x14>
   81b6c:	6983      	ldr	r3, [r0, #24]
   81b6e:	f3c3 0308 	ubfx	r3, r3, #0, #9
   81b72:	600b      	str	r3, [r1, #0]
   81b74:	2000      	movs	r0, #0
   81b76:	4770      	bx	lr
   81b78:	2001      	movs	r0, #1
   81b7a:	4770      	bx	lr

00081b7c <rtouch_get_calibrated_point>:
   81b7c:	b430      	push	{r4, r5}
   81b7e:	4d14      	ldr	r5, [pc, #80]	; (81bd0 <rtouch_get_calibrated_point+0x54>)
   81b80:	886c      	ldrh	r4, [r5, #2]
   81b82:	88ea      	ldrh	r2, [r5, #6]
   81b84:	8843      	ldrh	r3, [r0, #2]
   81b86:	1ad2      	subs	r2, r2, r3
   81b88:	0292      	lsls	r2, r2, #10
   81b8a:	4b12      	ldr	r3, [pc, #72]	; (81bd4 <rtouch_get_calibrated_point+0x58>)
   81b8c:	681b      	ldr	r3, [r3, #0]
   81b8e:	fb92 f3f3 	sdiv	r3, r2, r3
   81b92:	1ae4      	subs	r4, r4, r3
   81b94:	882a      	ldrh	r2, [r5, #0]
   81b96:	88ab      	ldrh	r3, [r5, #4]
   81b98:	8800      	ldrh	r0, [r0, #0]
   81b9a:	1a1b      	subs	r3, r3, r0
   81b9c:	029b      	lsls	r3, r3, #10
   81b9e:	480e      	ldr	r0, [pc, #56]	; (81bd8 <rtouch_get_calibrated_point+0x5c>)
   81ba0:	6800      	ldr	r0, [r0, #0]
   81ba2:	fb93 f3f0 	sdiv	r3, r3, r0
   81ba6:	1ad3      	subs	r3, r2, r3
   81ba8:	ea23 73e3 	bic.w	r3, r3, r3, asr #31
   81bac:	b29b      	uxth	r3, r3
   81bae:	4a0b      	ldr	r2, [pc, #44]	; (81bdc <rtouch_get_calibrated_point+0x60>)
   81bb0:	6812      	ldr	r2, [r2, #0]
   81bb2:	4293      	cmp	r3, r2
   81bb4:	bf28      	it	cs
   81bb6:	4613      	movcs	r3, r2
   81bb8:	800b      	strh	r3, [r1, #0]
   81bba:	ea24 73e4 	bic.w	r3, r4, r4, asr #31
   81bbe:	b29b      	uxth	r3, r3
   81bc0:	4a07      	ldr	r2, [pc, #28]	; (81be0 <rtouch_get_calibrated_point+0x64>)
   81bc2:	6812      	ldr	r2, [r2, #0]
   81bc4:	4293      	cmp	r3, r2
   81bc6:	bf28      	it	cs
   81bc8:	4613      	movcs	r3, r2
   81bca:	804b      	strh	r3, [r1, #2]
   81bcc:	bc30      	pop	{r4, r5}
   81bce:	4770      	bx	lr
   81bd0:	20000c38 	.word	0x20000c38
   81bd4:	20000c4c 	.word	0x20000c4c
   81bd8:	20000c54 	.word	0x20000c54
   81bdc:	20000c58 	.word	0x20000c58
   81be0:	20000c5c 	.word	0x20000c5c

00081be4 <rtouch_pen_handler>:
   81be4:	b508      	push	{r3, lr}
   81be6:	4b0e      	ldr	r3, [pc, #56]	; (81c20 <rtouch_pen_handler+0x3c>)
   81be8:	4798      	blx	r3
   81bea:	b160      	cbz	r0, 81c06 <rtouch_pen_handler+0x22>
   81bec:	4b0d      	ldr	r3, [pc, #52]	; (81c24 <rtouch_pen_handler+0x40>)
   81bee:	781b      	ldrb	r3, [r3, #0]
   81bf0:	f013 0fff 	tst.w	r3, #255	; 0xff
   81bf4:	d113      	bne.n	81c1e <rtouch_pen_handler+0x3a>
   81bf6:	4b0c      	ldr	r3, [pc, #48]	; (81c28 <rtouch_pen_handler+0x44>)
   81bf8:	681a      	ldr	r2, [r3, #0]
   81bfa:	4b0c      	ldr	r3, [pc, #48]	; (81c2c <rtouch_pen_handler+0x48>)
   81bfc:	601a      	str	r2, [r3, #0]
   81bfe:	2202      	movs	r2, #2
   81c00:	4b08      	ldr	r3, [pc, #32]	; (81c24 <rtouch_pen_handler+0x40>)
   81c02:	701a      	strb	r2, [r3, #0]
   81c04:	bd08      	pop	{r3, pc}
   81c06:	4b07      	ldr	r3, [pc, #28]	; (81c24 <rtouch_pen_handler+0x40>)
   81c08:	781b      	ldrb	r3, [r3, #0]
   81c0a:	b2db      	uxtb	r3, r3
   81c0c:	2b01      	cmp	r3, #1
   81c0e:	d106      	bne.n	81c1e <rtouch_pen_handler+0x3a>
   81c10:	4b05      	ldr	r3, [pc, #20]	; (81c28 <rtouch_pen_handler+0x44>)
   81c12:	681a      	ldr	r2, [r3, #0]
   81c14:	4b06      	ldr	r3, [pc, #24]	; (81c30 <rtouch_pen_handler+0x4c>)
   81c16:	601a      	str	r2, [r3, #0]
   81c18:	2202      	movs	r2, #2
   81c1a:	4b02      	ldr	r3, [pc, #8]	; (81c24 <rtouch_pen_handler+0x40>)
   81c1c:	701a      	strb	r2, [r3, #0]
   81c1e:	bd08      	pop	{r3, pc}
   81c20:	00081341 	.word	0x00081341
   81c24:	20000c50 	.word	0x20000c50
   81c28:	20000c60 	.word	0x20000c60
   81c2c:	20000c2c 	.word	0x20000c2c
   81c30:	20000c30 	.word	0x20000c30

00081c34 <rtouch_init>:
   81c34:	b508      	push	{r3, lr}
   81c36:	4b03      	ldr	r3, [pc, #12]	; (81c44 <rtouch_init+0x10>)
   81c38:	6018      	str	r0, [r3, #0]
   81c3a:	4b03      	ldr	r3, [pc, #12]	; (81c48 <rtouch_init+0x14>)
   81c3c:	6019      	str	r1, [r3, #0]
   81c3e:	4b03      	ldr	r3, [pc, #12]	; (81c4c <rtouch_init+0x18>)
   81c40:	4798      	blx	r3
   81c42:	bd08      	pop	{r3, pc}
   81c44:	20000c58 	.word	0x20000c58
   81c48:	20000c5c 	.word	0x20000c5c
   81c4c:	000813b9 	.word	0x000813b9

00081c50 <rtouch_wait_pressed>:
   81c50:	4a05      	ldr	r2, [pc, #20]	; (81c68 <rtouch_wait_pressed+0x18>)
   81c52:	7813      	ldrb	r3, [r2, #0]
   81c54:	f013 0fff 	tst.w	r3, #255	; 0xff
   81c58:	d1fb      	bne.n	81c52 <rtouch_wait_pressed+0x2>
   81c5a:	4a03      	ldr	r2, [pc, #12]	; (81c68 <rtouch_wait_pressed+0x18>)
   81c5c:	7813      	ldrb	r3, [r2, #0]
   81c5e:	b2db      	uxtb	r3, r3
   81c60:	2b01      	cmp	r3, #1
   81c62:	d1fb      	bne.n	81c5c <rtouch_wait_pressed+0xc>
   81c64:	4770      	bx	lr
   81c66:	bf00      	nop
   81c68:	20000c50 	.word	0x20000c50

00081c6c <rtouch_wait_released>:
   81c6c:	4a05      	ldr	r2, [pc, #20]	; (81c84 <rtouch_wait_released+0x18>)
   81c6e:	7813      	ldrb	r3, [r2, #0]
   81c70:	b2db      	uxtb	r3, r3
   81c72:	2b01      	cmp	r3, #1
   81c74:	d1fb      	bne.n	81c6e <rtouch_wait_released+0x2>
   81c76:	4a03      	ldr	r2, [pc, #12]	; (81c84 <rtouch_wait_released+0x18>)
   81c78:	7813      	ldrb	r3, [r2, #0]
   81c7a:	f013 0fff 	tst.w	r3, #255	; 0xff
   81c7e:	d1fb      	bne.n	81c78 <rtouch_wait_released+0xc>
   81c80:	4770      	bx	lr
   81c82:	bf00      	nop
   81c84:	20000c50 	.word	0x20000c50

00081c88 <rtouch_enable>:
   81c88:	b508      	push	{r3, lr}
   81c8a:	4804      	ldr	r0, [pc, #16]	; (81c9c <rtouch_enable+0x14>)
   81c8c:	4b04      	ldr	r3, [pc, #16]	; (81ca0 <rtouch_enable+0x18>)
   81c8e:	4798      	blx	r3
   81c90:	4b04      	ldr	r3, [pc, #16]	; (81ca4 <rtouch_enable+0x1c>)
   81c92:	4798      	blx	r3
   81c94:	2201      	movs	r2, #1
   81c96:	4b04      	ldr	r3, [pc, #16]	; (81ca8 <rtouch_enable+0x20>)
   81c98:	601a      	str	r2, [r3, #0]
   81c9a:	bd08      	pop	{r3, pc}
   81c9c:	00081be5 	.word	0x00081be5
   81ca0:	00081355 	.word	0x00081355
   81ca4:	00081375 	.word	0x00081375
   81ca8:	20000c44 	.word	0x20000c44

00081cac <rtouch_compute_calibration>:
   81cac:	b5f0      	push	{r4, r5, r6, r7, lr}
   81cae:	b083      	sub	sp, #12
   81cb0:	4604      	mov	r4, r0
   81cb2:	8881      	ldrh	r1, [r0, #4]
   81cb4:	8983      	ldrh	r3, [r0, #12]
   81cb6:	1acb      	subs	r3, r1, r3
   81cb8:	029a      	lsls	r2, r3, #10
   81cba:	8805      	ldrh	r5, [r0, #0]
   81cbc:	8a83      	ldrh	r3, [r0, #20]
   81cbe:	8b80      	ldrh	r0, [r0, #28]
   81cc0:	1a18      	subs	r0, r3, r0
   81cc2:	0286      	lsls	r6, r0, #10
   81cc4:	8a23      	ldrh	r3, [r4, #16]
   81cc6:	8b20      	ldrh	r0, [r4, #24]
   81cc8:	1a1b      	subs	r3, r3, r0
   81cca:	fb96 f0f3 	sdiv	r0, r6, r3
   81cce:	8923      	ldrh	r3, [r4, #8]
   81cd0:	1aeb      	subs	r3, r5, r3
   81cd2:	fb92 f3f3 	sdiv	r3, r2, r3
   81cd6:	4403      	add	r3, r0
   81cd8:	eb03 73d3 	add.w	r3, r3, r3, lsr #31
   81cdc:	105b      	asrs	r3, r3, #1
   81cde:	4a20      	ldr	r2, [pc, #128]	; (81d60 <rtouch_compute_calibration+0xb4>)
   81ce0:	6013      	str	r3, [r2, #0]
   81ce2:	88e7      	ldrh	r7, [r4, #6]
   81ce4:	8ae3      	ldrh	r3, [r4, #22]
   81ce6:	1afb      	subs	r3, r7, r3
   81ce8:	029a      	lsls	r2, r3, #10
   81cea:	f8b4 e002 	ldrh.w	lr, [r4, #2]
   81cee:	89e3      	ldrh	r3, [r4, #14]
   81cf0:	8be0      	ldrh	r0, [r4, #30]
   81cf2:	1a18      	subs	r0, r3, r0
   81cf4:	0286      	lsls	r6, r0, #10
   81cf6:	8963      	ldrh	r3, [r4, #10]
   81cf8:	8b60      	ldrh	r0, [r4, #26]
   81cfa:	1a1b      	subs	r3, r3, r0
   81cfc:	fb96 f0f3 	sdiv	r0, r6, r3
   81d00:	8a63      	ldrh	r3, [r4, #18]
   81d02:	ebc3 030e 	rsb	r3, r3, lr
   81d06:	fb92 f3f3 	sdiv	r3, r2, r3
   81d0a:	4403      	add	r3, r0
   81d0c:	eb03 73d3 	add.w	r3, r3, r3, lsr #31
   81d10:	105b      	asrs	r3, r3, #1
   81d12:	4a14      	ldr	r2, [pc, #80]	; (81d64 <rtouch_compute_calibration+0xb8>)
   81d14:	6013      	str	r3, [r2, #0]
   81d16:	4b14      	ldr	r3, [pc, #80]	; (81d68 <rtouch_compute_calibration+0xbc>)
   81d18:	801d      	strh	r5, [r3, #0]
   81d1a:	8099      	strh	r1, [r3, #4]
   81d1c:	f8a3 e002 	strh.w	lr, [r3, #2]
   81d20:	80df      	strh	r7, [r3, #6]
   81d22:	a901      	add	r1, sp, #4
   81d24:	f104 0024 	add.w	r0, r4, #36	; 0x24
   81d28:	4b10      	ldr	r3, [pc, #64]	; (81d6c <rtouch_compute_calibration+0xc0>)
   81d2a:	4798      	blx	r3
   81d2c:	f8bd 3004 	ldrh.w	r3, [sp, #4]
   81d30:	8c22      	ldrh	r2, [r4, #32]
   81d32:	1a9b      	subs	r3, r3, r2
   81d34:	3305      	adds	r3, #5
   81d36:	2b0a      	cmp	r3, #10
   81d38:	d80b      	bhi.n	81d52 <rtouch_compute_calibration+0xa6>
   81d3a:	f8bd 3006 	ldrh.w	r3, [sp, #6]
   81d3e:	8c62      	ldrh	r2, [r4, #34]	; 0x22
   81d40:	1a9b      	subs	r3, r3, r2
   81d42:	3305      	adds	r3, #5
   81d44:	2b0a      	cmp	r3, #10
   81d46:	d804      	bhi.n	81d52 <rtouch_compute_calibration+0xa6>
   81d48:	2201      	movs	r2, #1
   81d4a:	4b09      	ldr	r3, [pc, #36]	; (81d70 <rtouch_compute_calibration+0xc4>)
   81d4c:	601a      	str	r2, [r3, #0]
   81d4e:	2000      	movs	r0, #0
   81d50:	e003      	b.n	81d5a <rtouch_compute_calibration+0xae>
   81d52:	2200      	movs	r2, #0
   81d54:	4b06      	ldr	r3, [pc, #24]	; (81d70 <rtouch_compute_calibration+0xc4>)
   81d56:	601a      	str	r2, [r3, #0]
   81d58:	2001      	movs	r0, #1
   81d5a:	b003      	add	sp, #12
   81d5c:	bdf0      	pop	{r4, r5, r6, r7, pc}
   81d5e:	bf00      	nop
   81d60:	20000c54 	.word	0x20000c54
   81d64:	20000c4c 	.word	0x20000c4c
   81d68:	20000c38 	.word	0x20000c38
   81d6c:	00081b7d 	.word	0x00081b7d
   81d70:	20000c48 	.word	0x20000c48

00081d74 <rtouch_set_event_handler>:
   81d74:	4b01      	ldr	r3, [pc, #4]	; (81d7c <rtouch_set_event_handler+0x8>)
   81d76:	6018      	str	r0, [r3, #0]
   81d78:	4770      	bx	lr
   81d7a:	bf00      	nop
   81d7c:	20000c34 	.word	0x20000c34

00081d80 <rtouch_process>:
   81d80:	4b47      	ldr	r3, [pc, #284]	; (81ea0 <rtouch_process+0x120>)
   81d82:	681b      	ldr	r3, [r3, #0]
   81d84:	2b00      	cmp	r3, #0
   81d86:	f000 808a 	beq.w	81e9e <rtouch_process+0x11e>
   81d8a:	b500      	push	{lr}
   81d8c:	b083      	sub	sp, #12
   81d8e:	4a45      	ldr	r2, [pc, #276]	; (81ea4 <rtouch_process+0x124>)
   81d90:	6813      	ldr	r3, [r2, #0]
   81d92:	3301      	adds	r3, #1
   81d94:	6013      	str	r3, [r2, #0]
   81d96:	4b44      	ldr	r3, [pc, #272]	; (81ea8 <rtouch_process+0x128>)
   81d98:	4798      	blx	r3
   81d9a:	2800      	cmp	r0, #0
   81d9c:	d038      	beq.n	81e10 <rtouch_process+0x90>
   81d9e:	4b43      	ldr	r3, [pc, #268]	; (81eac <rtouch_process+0x12c>)
   81da0:	681b      	ldr	r3, [r3, #0]
   81da2:	f013 0fff 	tst.w	r3, #255	; 0xff
   81da6:	d011      	beq.n	81dcc <rtouch_process+0x4c>
   81da8:	4669      	mov	r1, sp
   81daa:	a801      	add	r0, sp, #4
   81dac:	4b40      	ldr	r3, [pc, #256]	; (81eb0 <rtouch_process+0x130>)
   81dae:	4798      	blx	r3
   81db0:	4840      	ldr	r0, [pc, #256]	; (81eb4 <rtouch_process+0x134>)
   81db2:	9b01      	ldr	r3, [sp, #4]
   81db4:	80c3      	strh	r3, [r0, #6]
   81db6:	9b00      	ldr	r3, [sp, #0]
   81db8:	8103      	strh	r3, [r0, #8]
   81dba:	4b3f      	ldr	r3, [pc, #252]	; (81eb8 <rtouch_process+0x138>)
   81dbc:	8842      	ldrh	r2, [r0, #2]
   81dbe:	801a      	strh	r2, [r3, #0]
   81dc0:	8882      	ldrh	r2, [r0, #4]
   81dc2:	805a      	strh	r2, [r3, #2]
   81dc4:	1c81      	adds	r1, r0, #2
   81dc6:	3006      	adds	r0, #6
   81dc8:	4b3c      	ldr	r3, [pc, #240]	; (81ebc <rtouch_process+0x13c>)
   81dca:	4798      	blx	r3
   81dcc:	4b3c      	ldr	r3, [pc, #240]	; (81ec0 <rtouch_process+0x140>)
   81dce:	781b      	ldrb	r3, [r3, #0]
   81dd0:	b2db      	uxtb	r3, r3
   81dd2:	2b01      	cmp	r3, #1
   81dd4:	d11c      	bne.n	81e10 <rtouch_process+0x90>
   81dd6:	4b35      	ldr	r3, [pc, #212]	; (81eac <rtouch_process+0x12c>)
   81dd8:	681b      	ldr	r3, [r3, #0]
   81dda:	f013 0fff 	tst.w	r3, #255	; 0xff
   81dde:	d017      	beq.n	81e10 <rtouch_process+0x90>
   81de0:	4b35      	ldr	r3, [pc, #212]	; (81eb8 <rtouch_process+0x138>)
   81de2:	881b      	ldrh	r3, [r3, #0]
   81de4:	4a33      	ldr	r2, [pc, #204]	; (81eb4 <rtouch_process+0x134>)
   81de6:	8852      	ldrh	r2, [r2, #2]
   81de8:	1a9b      	subs	r3, r3, r2
   81dea:	3305      	adds	r3, #5
   81dec:	2b0a      	cmp	r3, #10
   81dee:	d807      	bhi.n	81e00 <rtouch_process+0x80>
   81df0:	4b31      	ldr	r3, [pc, #196]	; (81eb8 <rtouch_process+0x138>)
   81df2:	885b      	ldrh	r3, [r3, #2]
   81df4:	4a2f      	ldr	r2, [pc, #188]	; (81eb4 <rtouch_process+0x134>)
   81df6:	8892      	ldrh	r2, [r2, #4]
   81df8:	1a9b      	subs	r3, r3, r2
   81dfa:	3305      	adds	r3, #5
   81dfc:	2b0a      	cmp	r3, #10
   81dfe:	d907      	bls.n	81e10 <rtouch_process+0x90>
   81e00:	2201      	movs	r2, #1
   81e02:	4b2c      	ldr	r3, [pc, #176]	; (81eb4 <rtouch_process+0x134>)
   81e04:	701a      	strb	r2, [r3, #0]
   81e06:	4b2f      	ldr	r3, [pc, #188]	; (81ec4 <rtouch_process+0x144>)
   81e08:	681b      	ldr	r3, [r3, #0]
   81e0a:	b10b      	cbz	r3, 81e10 <rtouch_process+0x90>
   81e0c:	4829      	ldr	r0, [pc, #164]	; (81eb4 <rtouch_process+0x134>)
   81e0e:	4798      	blx	r3
   81e10:	4b25      	ldr	r3, [pc, #148]	; (81ea8 <rtouch_process+0x128>)
   81e12:	4798      	blx	r3
   81e14:	b300      	cbz	r0, 81e58 <rtouch_process+0xd8>
   81e16:	4b23      	ldr	r3, [pc, #140]	; (81ea4 <rtouch_process+0x124>)
   81e18:	681a      	ldr	r2, [r3, #0]
   81e1a:	4b2b      	ldr	r3, [pc, #172]	; (81ec8 <rtouch_process+0x148>)
   81e1c:	601a      	str	r2, [r3, #0]
   81e1e:	4b28      	ldr	r3, [pc, #160]	; (81ec0 <rtouch_process+0x140>)
   81e20:	781b      	ldrb	r3, [r3, #0]
   81e22:	b2db      	uxtb	r3, r3
   81e24:	2b02      	cmp	r3, #2
   81e26:	d137      	bne.n	81e98 <rtouch_process+0x118>
   81e28:	4b1e      	ldr	r3, [pc, #120]	; (81ea4 <rtouch_process+0x124>)
   81e2a:	681b      	ldr	r3, [r3, #0]
   81e2c:	4a27      	ldr	r2, [pc, #156]	; (81ecc <rtouch_process+0x14c>)
   81e2e:	6812      	ldr	r2, [r2, #0]
   81e30:	1a9b      	subs	r3, r3, r2
   81e32:	2b06      	cmp	r3, #6
   81e34:	d930      	bls.n	81e98 <rtouch_process+0x118>
   81e36:	2201      	movs	r2, #1
   81e38:	4b21      	ldr	r3, [pc, #132]	; (81ec0 <rtouch_process+0x140>)
   81e3a:	701a      	strb	r2, [r3, #0]
   81e3c:	2200      	movs	r2, #0
   81e3e:	4b1d      	ldr	r3, [pc, #116]	; (81eb4 <rtouch_process+0x134>)
   81e40:	701a      	strb	r2, [r3, #0]
   81e42:	4b1a      	ldr	r3, [pc, #104]	; (81eac <rtouch_process+0x12c>)
   81e44:	681b      	ldr	r3, [r3, #0]
   81e46:	f013 0fff 	tst.w	r3, #255	; 0xff
   81e4a:	d025      	beq.n	81e98 <rtouch_process+0x118>
   81e4c:	4b1d      	ldr	r3, [pc, #116]	; (81ec4 <rtouch_process+0x144>)
   81e4e:	681b      	ldr	r3, [r3, #0]
   81e50:	b313      	cbz	r3, 81e98 <rtouch_process+0x118>
   81e52:	4818      	ldr	r0, [pc, #96]	; (81eb4 <rtouch_process+0x134>)
   81e54:	4798      	blx	r3
   81e56:	e01f      	b.n	81e98 <rtouch_process+0x118>
   81e58:	4b12      	ldr	r3, [pc, #72]	; (81ea4 <rtouch_process+0x124>)
   81e5a:	681a      	ldr	r2, [r3, #0]
   81e5c:	4b1b      	ldr	r3, [pc, #108]	; (81ecc <rtouch_process+0x14c>)
   81e5e:	601a      	str	r2, [r3, #0]
   81e60:	4b17      	ldr	r3, [pc, #92]	; (81ec0 <rtouch_process+0x140>)
   81e62:	781b      	ldrb	r3, [r3, #0]
   81e64:	b2db      	uxtb	r3, r3
   81e66:	2b02      	cmp	r3, #2
   81e68:	d116      	bne.n	81e98 <rtouch_process+0x118>
   81e6a:	4b0e      	ldr	r3, [pc, #56]	; (81ea4 <rtouch_process+0x124>)
   81e6c:	681b      	ldr	r3, [r3, #0]
   81e6e:	4a16      	ldr	r2, [pc, #88]	; (81ec8 <rtouch_process+0x148>)
   81e70:	6812      	ldr	r2, [r2, #0]
   81e72:	1a9b      	subs	r3, r3, r2
   81e74:	2b06      	cmp	r3, #6
   81e76:	d90f      	bls.n	81e98 <rtouch_process+0x118>
   81e78:	2200      	movs	r2, #0
   81e7a:	4b11      	ldr	r3, [pc, #68]	; (81ec0 <rtouch_process+0x140>)
   81e7c:	701a      	strb	r2, [r3, #0]
   81e7e:	2202      	movs	r2, #2
   81e80:	4b0c      	ldr	r3, [pc, #48]	; (81eb4 <rtouch_process+0x134>)
   81e82:	701a      	strb	r2, [r3, #0]
   81e84:	4b09      	ldr	r3, [pc, #36]	; (81eac <rtouch_process+0x12c>)
   81e86:	681b      	ldr	r3, [r3, #0]
   81e88:	f013 0fff 	tst.w	r3, #255	; 0xff
   81e8c:	d004      	beq.n	81e98 <rtouch_process+0x118>
   81e8e:	4b0d      	ldr	r3, [pc, #52]	; (81ec4 <rtouch_process+0x144>)
   81e90:	681b      	ldr	r3, [r3, #0]
   81e92:	b10b      	cbz	r3, 81e98 <rtouch_process+0x118>
   81e94:	4807      	ldr	r0, [pc, #28]	; (81eb4 <rtouch_process+0x134>)
   81e96:	4798      	blx	r3
   81e98:	b003      	add	sp, #12
   81e9a:	f85d fb04 	ldr.w	pc, [sp], #4
   81e9e:	4770      	bx	lr
   81ea0:	20000c44 	.word	0x20000c44
   81ea4:	20000c60 	.word	0x20000c60
   81ea8:	00081341 	.word	0x00081341
   81eac:	20000c48 	.word	0x20000c48
   81eb0:	00081385 	.word	0x00081385
   81eb4:	20000c64 	.word	0x20000c64
   81eb8:	20000c40 	.word	0x20000c40
   81ebc:	00081b7d 	.word	0x00081b7d
   81ec0:	20000c50 	.word	0x20000c50
   81ec4:	20000c34 	.word	0x20000c34
   81ec8:	20000c30 	.word	0x20000c30
   81ecc:	20000c2c 	.word	0x20000c2c

00081ed0 <Dummy_Handler>:
   81ed0:	e7fe      	b.n	81ed0 <Dummy_Handler>
   81ed2:	bf00      	nop

00081ed4 <Reset_Handler>:
   81ed4:	b508      	push	{r3, lr}
   81ed6:	4b1e      	ldr	r3, [pc, #120]	; (81f50 <Reset_Handler+0x7c>)
   81ed8:	4a1e      	ldr	r2, [pc, #120]	; (81f54 <Reset_Handler+0x80>)
   81eda:	429a      	cmp	r2, r3
   81edc:	d003      	beq.n	81ee6 <Reset_Handler+0x12>
   81ede:	4b1e      	ldr	r3, [pc, #120]	; (81f58 <Reset_Handler+0x84>)
   81ee0:	4a1b      	ldr	r2, [pc, #108]	; (81f50 <Reset_Handler+0x7c>)
   81ee2:	429a      	cmp	r2, r3
   81ee4:	d304      	bcc.n	81ef0 <Reset_Handler+0x1c>
   81ee6:	4b1d      	ldr	r3, [pc, #116]	; (81f5c <Reset_Handler+0x88>)
   81ee8:	4a1d      	ldr	r2, [pc, #116]	; (81f60 <Reset_Handler+0x8c>)
   81eea:	429a      	cmp	r2, r3
   81eec:	d30f      	bcc.n	81f0e <Reset_Handler+0x3a>
   81eee:	e01a      	b.n	81f26 <Reset_Handler+0x52>
   81ef0:	4917      	ldr	r1, [pc, #92]	; (81f50 <Reset_Handler+0x7c>)
   81ef2:	4b1c      	ldr	r3, [pc, #112]	; (81f64 <Reset_Handler+0x90>)
   81ef4:	1a5b      	subs	r3, r3, r1
   81ef6:	f023 0303 	bic.w	r3, r3, #3
   81efa:	3304      	adds	r3, #4
   81efc:	4a15      	ldr	r2, [pc, #84]	; (81f54 <Reset_Handler+0x80>)
   81efe:	4413      	add	r3, r2
   81f00:	f852 0b04 	ldr.w	r0, [r2], #4
   81f04:	f841 0b04 	str.w	r0, [r1], #4
   81f08:	429a      	cmp	r2, r3
   81f0a:	d1f9      	bne.n	81f00 <Reset_Handler+0x2c>
   81f0c:	e7eb      	b.n	81ee6 <Reset_Handler+0x12>
   81f0e:	4b16      	ldr	r3, [pc, #88]	; (81f68 <Reset_Handler+0x94>)
   81f10:	4a16      	ldr	r2, [pc, #88]	; (81f6c <Reset_Handler+0x98>)
   81f12:	1ad2      	subs	r2, r2, r3
   81f14:	f022 0203 	bic.w	r2, r2, #3
   81f18:	441a      	add	r2, r3
   81f1a:	3b04      	subs	r3, #4
   81f1c:	2100      	movs	r1, #0
   81f1e:	f843 1b04 	str.w	r1, [r3], #4
   81f22:	4293      	cmp	r3, r2
   81f24:	d1fb      	bne.n	81f1e <Reset_Handler+0x4a>
   81f26:	4b12      	ldr	r3, [pc, #72]	; (81f70 <Reset_Handler+0x9c>)
   81f28:	f023 4260 	bic.w	r2, r3, #3758096384	; 0xe0000000
   81f2c:	f022 027f 	bic.w	r2, r2, #127	; 0x7f
   81f30:	4910      	ldr	r1, [pc, #64]	; (81f74 <Reset_Handler+0xa0>)
   81f32:	608a      	str	r2, [r1, #8]
   81f34:	f103 4360 	add.w	r3, r3, #3758096384	; 0xe0000000
   81f38:	f5b3 4f40 	cmp.w	r3, #49152	; 0xc000
   81f3c:	d203      	bcs.n	81f46 <Reset_Handler+0x72>
   81f3e:	688b      	ldr	r3, [r1, #8]
   81f40:	f043 5300 	orr.w	r3, r3, #536870912	; 0x20000000
   81f44:	608b      	str	r3, [r1, #8]
   81f46:	4b0c      	ldr	r3, [pc, #48]	; (81f78 <Reset_Handler+0xa4>)
   81f48:	4798      	blx	r3
   81f4a:	4b0c      	ldr	r3, [pc, #48]	; (81f7c <Reset_Handler+0xa8>)
   81f4c:	4798      	blx	r3
   81f4e:	e7fe      	b.n	81f4e <Reset_Handler+0x7a>
   81f50:	20000000 	.word	0x20000000
   81f54:	00085c8c 	.word	0x00085c8c
   81f58:	200009ac 	.word	0x200009ac
   81f5c:	20000cbc 	.word	0x20000cbc
   81f60:	200009ac 	.word	0x200009ac
   81f64:	200009ab 	.word	0x200009ab
   81f68:	200009b0 	.word	0x200009b0
   81f6c:	20000cbf 	.word	0x20000cbf
   81f70:	00080000 	.word	0x00080000
   81f74:	e000ed00 	.word	0xe000ed00
   81f78:	000821f9 	.word	0x000821f9
   81f7c:	0008074d 	.word	0x0008074d

00081f80 <SystemCoreClockUpdate>:
   81f80:	4b3e      	ldr	r3, [pc, #248]	; (8207c <SystemCoreClockUpdate+0xfc>)
   81f82:	6b1b      	ldr	r3, [r3, #48]	; 0x30
   81f84:	f003 0303 	and.w	r3, r3, #3
   81f88:	2b03      	cmp	r3, #3
   81f8a:	d85f      	bhi.n	8204c <SystemCoreClockUpdate+0xcc>
   81f8c:	e8df f003 	tbb	[pc, r3]
   81f90:	2b2b0e02 	.word	0x2b2b0e02
   81f94:	4b3a      	ldr	r3, [pc, #232]	; (82080 <SystemCoreClockUpdate+0x100>)
   81f96:	695b      	ldr	r3, [r3, #20]
   81f98:	f013 0f80 	tst.w	r3, #128	; 0x80
   81f9c:	bf14      	ite	ne
   81f9e:	f44f 4200 	movne.w	r2, #32768	; 0x8000
   81fa2:	f44f 42fa 	moveq.w	r2, #32000	; 0x7d00
   81fa6:	4b37      	ldr	r3, [pc, #220]	; (82084 <SystemCoreClockUpdate+0x104>)
   81fa8:	601a      	str	r2, [r3, #0]
   81faa:	e04f      	b.n	8204c <SystemCoreClockUpdate+0xcc>
   81fac:	4b33      	ldr	r3, [pc, #204]	; (8207c <SystemCoreClockUpdate+0xfc>)
   81fae:	6a1b      	ldr	r3, [r3, #32]
   81fb0:	f013 7f80 	tst.w	r3, #16777216	; 0x1000000
   81fb4:	d003      	beq.n	81fbe <SystemCoreClockUpdate+0x3e>
   81fb6:	4a34      	ldr	r2, [pc, #208]	; (82088 <SystemCoreClockUpdate+0x108>)
   81fb8:	4b32      	ldr	r3, [pc, #200]	; (82084 <SystemCoreClockUpdate+0x104>)
   81fba:	601a      	str	r2, [r3, #0]
   81fbc:	e046      	b.n	8204c <SystemCoreClockUpdate+0xcc>
   81fbe:	4a33      	ldr	r2, [pc, #204]	; (8208c <SystemCoreClockUpdate+0x10c>)
   81fc0:	4b30      	ldr	r3, [pc, #192]	; (82084 <SystemCoreClockUpdate+0x104>)
   81fc2:	601a      	str	r2, [r3, #0]
   81fc4:	4b2d      	ldr	r3, [pc, #180]	; (8207c <SystemCoreClockUpdate+0xfc>)
   81fc6:	6a1b      	ldr	r3, [r3, #32]
   81fc8:	f003 0370 	and.w	r3, r3, #112	; 0x70
   81fcc:	2b10      	cmp	r3, #16
   81fce:	d002      	beq.n	81fd6 <SystemCoreClockUpdate+0x56>
   81fd0:	2b20      	cmp	r3, #32
   81fd2:	d004      	beq.n	81fde <SystemCoreClockUpdate+0x5e>
   81fd4:	e03a      	b.n	8204c <SystemCoreClockUpdate+0xcc>
   81fd6:	4a2e      	ldr	r2, [pc, #184]	; (82090 <SystemCoreClockUpdate+0x110>)
   81fd8:	4b2a      	ldr	r3, [pc, #168]	; (82084 <SystemCoreClockUpdate+0x104>)
   81fda:	601a      	str	r2, [r3, #0]
   81fdc:	e036      	b.n	8204c <SystemCoreClockUpdate+0xcc>
   81fde:	4a2a      	ldr	r2, [pc, #168]	; (82088 <SystemCoreClockUpdate+0x108>)
   81fe0:	4b28      	ldr	r3, [pc, #160]	; (82084 <SystemCoreClockUpdate+0x104>)
   81fe2:	601a      	str	r2, [r3, #0]
   81fe4:	e032      	b.n	8204c <SystemCoreClockUpdate+0xcc>
   81fe6:	4b25      	ldr	r3, [pc, #148]	; (8207c <SystemCoreClockUpdate+0xfc>)
   81fe8:	6a1b      	ldr	r3, [r3, #32]
   81fea:	f013 7f80 	tst.w	r3, #16777216	; 0x1000000
   81fee:	d003      	beq.n	81ff8 <SystemCoreClockUpdate+0x78>
   81ff0:	4a25      	ldr	r2, [pc, #148]	; (82088 <SystemCoreClockUpdate+0x108>)
   81ff2:	4b24      	ldr	r3, [pc, #144]	; (82084 <SystemCoreClockUpdate+0x104>)
   81ff4:	601a      	str	r2, [r3, #0]
   81ff6:	e012      	b.n	8201e <SystemCoreClockUpdate+0x9e>
   81ff8:	4a24      	ldr	r2, [pc, #144]	; (8208c <SystemCoreClockUpdate+0x10c>)
   81ffa:	4b22      	ldr	r3, [pc, #136]	; (82084 <SystemCoreClockUpdate+0x104>)
   81ffc:	601a      	str	r2, [r3, #0]
   81ffe:	4b1f      	ldr	r3, [pc, #124]	; (8207c <SystemCoreClockUpdate+0xfc>)
   82000:	6a1b      	ldr	r3, [r3, #32]
   82002:	f003 0370 	and.w	r3, r3, #112	; 0x70
   82006:	2b10      	cmp	r3, #16
   82008:	d002      	beq.n	82010 <SystemCoreClockUpdate+0x90>
   8200a:	2b20      	cmp	r3, #32
   8200c:	d004      	beq.n	82018 <SystemCoreClockUpdate+0x98>
   8200e:	e006      	b.n	8201e <SystemCoreClockUpdate+0x9e>
   82010:	4a1f      	ldr	r2, [pc, #124]	; (82090 <SystemCoreClockUpdate+0x110>)
   82012:	4b1c      	ldr	r3, [pc, #112]	; (82084 <SystemCoreClockUpdate+0x104>)
   82014:	601a      	str	r2, [r3, #0]
   82016:	e002      	b.n	8201e <SystemCoreClockUpdate+0x9e>
   82018:	4a1b      	ldr	r2, [pc, #108]	; (82088 <SystemCoreClockUpdate+0x108>)
   8201a:	4b1a      	ldr	r3, [pc, #104]	; (82084 <SystemCoreClockUpdate+0x104>)
   8201c:	601a      	str	r2, [r3, #0]
   8201e:	4b17      	ldr	r3, [pc, #92]	; (8207c <SystemCoreClockUpdate+0xfc>)
   82020:	6b1b      	ldr	r3, [r3, #48]	; 0x30
   82022:	f003 0303 	and.w	r3, r3, #3
   82026:	2b02      	cmp	r3, #2
   82028:	d10d      	bne.n	82046 <SystemCoreClockUpdate+0xc6>
   8202a:	4a14      	ldr	r2, [pc, #80]	; (8207c <SystemCoreClockUpdate+0xfc>)
   8202c:	6a93      	ldr	r3, [r2, #40]	; 0x28
   8202e:	6a92      	ldr	r2, [r2, #40]	; 0x28
   82030:	4814      	ldr	r0, [pc, #80]	; (82084 <SystemCoreClockUpdate+0x104>)
   82032:	f3c3 410a 	ubfx	r1, r3, #16, #11
   82036:	6803      	ldr	r3, [r0, #0]
   82038:	fb01 3303 	mla	r3, r1, r3, r3
   8203c:	b2d2      	uxtb	r2, r2
   8203e:	fbb3 f3f2 	udiv	r3, r3, r2
   82042:	6003      	str	r3, [r0, #0]
   82044:	e002      	b.n	8204c <SystemCoreClockUpdate+0xcc>
   82046:	4a13      	ldr	r2, [pc, #76]	; (82094 <SystemCoreClockUpdate+0x114>)
   82048:	4b0e      	ldr	r3, [pc, #56]	; (82084 <SystemCoreClockUpdate+0x104>)
   8204a:	601a      	str	r2, [r3, #0]
   8204c:	4b0b      	ldr	r3, [pc, #44]	; (8207c <SystemCoreClockUpdate+0xfc>)
   8204e:	6b1b      	ldr	r3, [r3, #48]	; 0x30
   82050:	f003 0370 	and.w	r3, r3, #112	; 0x70
   82054:	2b70      	cmp	r3, #112	; 0x70
   82056:	d107      	bne.n	82068 <SystemCoreClockUpdate+0xe8>
   82058:	4a0a      	ldr	r2, [pc, #40]	; (82084 <SystemCoreClockUpdate+0x104>)
   8205a:	6813      	ldr	r3, [r2, #0]
   8205c:	490e      	ldr	r1, [pc, #56]	; (82098 <SystemCoreClockUpdate+0x118>)
   8205e:	fba1 1303 	umull	r1, r3, r1, r3
   82062:	085b      	lsrs	r3, r3, #1
   82064:	6013      	str	r3, [r2, #0]
   82066:	4770      	bx	lr
   82068:	4b04      	ldr	r3, [pc, #16]	; (8207c <SystemCoreClockUpdate+0xfc>)
   8206a:	6b1b      	ldr	r3, [r3, #48]	; 0x30
   8206c:	4905      	ldr	r1, [pc, #20]	; (82084 <SystemCoreClockUpdate+0x104>)
   8206e:	f3c3 1202 	ubfx	r2, r3, #4, #3
   82072:	680b      	ldr	r3, [r1, #0]
   82074:	40d3      	lsrs	r3, r2
   82076:	600b      	str	r3, [r1, #0]
   82078:	4770      	bx	lr
   8207a:	bf00      	nop
   8207c:	400e0400 	.word	0x400e0400
   82080:	400e1210 	.word	0x400e1210
   82084:	2000011c 	.word	0x2000011c
   82088:	00b71b00 	.word	0x00b71b00
   8208c:	003d0900 	.word	0x003d0900
   82090:	007a1200 	.word	0x007a1200
   82094:	0e4e1c00 	.word	0x0e4e1c00
   82098:	aaaaaaab 	.word	0xaaaaaaab

0008209c <_sbrk>:
   8209c:	4b09      	ldr	r3, [pc, #36]	; (820c4 <_sbrk+0x28>)
   8209e:	681b      	ldr	r3, [r3, #0]
   820a0:	b913      	cbnz	r3, 820a8 <_sbrk+0xc>
   820a2:	4a09      	ldr	r2, [pc, #36]	; (820c8 <_sbrk+0x2c>)
   820a4:	4b07      	ldr	r3, [pc, #28]	; (820c4 <_sbrk+0x28>)
   820a6:	601a      	str	r2, [r3, #0]
   820a8:	4b06      	ldr	r3, [pc, #24]	; (820c4 <_sbrk+0x28>)
   820aa:	681b      	ldr	r3, [r3, #0]
   820ac:	181a      	adds	r2, r3, r0
   820ae:	4907      	ldr	r1, [pc, #28]	; (820cc <_sbrk+0x30>)
   820b0:	4291      	cmp	r1, r2
   820b2:	db04      	blt.n	820be <_sbrk+0x22>
   820b4:	4610      	mov	r0, r2
   820b6:	4a03      	ldr	r2, [pc, #12]	; (820c4 <_sbrk+0x28>)
   820b8:	6010      	str	r0, [r2, #0]
   820ba:	4618      	mov	r0, r3
   820bc:	4770      	bx	lr
   820be:	f04f 30ff 	mov.w	r0, #4294967295
   820c2:	4770      	bx	lr
   820c4:	20000c70 	.word	0x20000c70
   820c8:	20084000 	.word	0x20084000
   820cc:	20083ffc 	.word	0x20083ffc

000820d0 <_close>:
   820d0:	f04f 30ff 	mov.w	r0, #4294967295
   820d4:	4770      	bx	lr
   820d6:	bf00      	nop

000820d8 <_fstat>:
   820d8:	f44f 5300 	mov.w	r3, #8192	; 0x2000
   820dc:	604b      	str	r3, [r1, #4]
   820de:	2000      	movs	r0, #0
   820e0:	4770      	bx	lr
   820e2:	bf00      	nop

000820e4 <_isatty>:
   820e4:	2001      	movs	r0, #1
   820e6:	4770      	bx	lr

000820e8 <_lseek>:
   820e8:	2000      	movs	r0, #0
   820ea:	4770      	bx	lr

000820ec <rtouch_calibrate>:
   820ec:	e92d 41f0 	stmdb	sp!, {r4, r5, r6, r7, r8, lr}
   820f0:	b082      	sub	sp, #8
   820f2:	f64f 70ff 	movw	r0, #65535	; 0xffff
   820f6:	4b32      	ldr	r3, [pc, #200]	; (821c0 <rtouch_calibrate+0xd4>)
   820f8:	4798      	blx	r3
   820fa:	2000      	movs	r0, #0
   820fc:	4b31      	ldr	r3, [pc, #196]	; (821c4 <rtouch_calibrate+0xd8>)
   820fe:	4798      	blx	r3
   82100:	4a31      	ldr	r2, [pc, #196]	; (821c8 <rtouch_calibrate+0xdc>)
   82102:	213c      	movs	r1, #60	; 0x3c
   82104:	201e      	movs	r0, #30
   82106:	4c31      	ldr	r4, [pc, #196]	; (821cc <rtouch_calibrate+0xe0>)
   82108:	47a0      	blx	r4
   8210a:	4a31      	ldr	r2, [pc, #196]	; (821d0 <rtouch_calibrate+0xe4>)
   8210c:	21be      	movs	r1, #190	; 0xbe
   8210e:	2001      	movs	r0, #1
   82110:	47a0      	blx	r4
   82112:	4f30      	ldr	r7, [pc, #192]	; (821d4 <rtouch_calibrate+0xe8>)
   82114:	1d3c      	adds	r4, r7, #4
   82116:	372c      	adds	r7, #44	; 0x2c
   82118:	4e2a      	ldr	r6, [pc, #168]	; (821c4 <rtouch_calibrate+0xd8>)
   8211a:	4d2f      	ldr	r5, [pc, #188]	; (821d8 <rtouch_calibrate+0xec>)
   8211c:	f8df 80d4 	ldr.w	r8, [pc, #212]	; 821f4 <rtouch_calibrate+0x108>
   82120:	f44f 4078 	mov.w	r0, #63488	; 0xf800
   82124:	47b0      	blx	r6
   82126:	f834 0c04 	ldrh.w	r0, [r4, #-4]
   8212a:	f834 1c02 	ldrh.w	r1, [r4, #-2]
   8212e:	1c8b      	adds	r3, r1, #2
   82130:	1c82      	adds	r2, r0, #2
   82132:	3902      	subs	r1, #2
   82134:	3802      	subs	r0, #2
   82136:	47a8      	blx	r5
   82138:	47c0      	blx	r8
   8213a:	4669      	mov	r1, sp
   8213c:	a801      	add	r0, sp, #4
   8213e:	4b27      	ldr	r3, [pc, #156]	; (821dc <rtouch_calibrate+0xf0>)
   82140:	4798      	blx	r3
   82142:	9b01      	ldr	r3, [sp, #4]
   82144:	8023      	strh	r3, [r4, #0]
   82146:	9b00      	ldr	r3, [sp, #0]
   82148:	8063      	strh	r3, [r4, #2]
   8214a:	f64f 70ff 	movw	r0, #65535	; 0xffff
   8214e:	47b0      	blx	r6
   82150:	f834 0c04 	ldrh.w	r0, [r4, #-4]
   82154:	f834 1c02 	ldrh.w	r1, [r4, #-2]
   82158:	1c8b      	adds	r3, r1, #2
   8215a:	1c82      	adds	r2, r0, #2
   8215c:	3902      	subs	r1, #2
   8215e:	3802      	subs	r0, #2
   82160:	47a8      	blx	r5
   82162:	4b1f      	ldr	r3, [pc, #124]	; (821e0 <rtouch_calibrate+0xf4>)
   82164:	4798      	blx	r3
   82166:	3408      	adds	r4, #8
   82168:	42a7      	cmp	r7, r4
   8216a:	d1d9      	bne.n	82120 <rtouch_calibrate+0x34>
   8216c:	4819      	ldr	r0, [pc, #100]	; (821d4 <rtouch_calibrate+0xe8>)
   8216e:	4b1d      	ldr	r3, [pc, #116]	; (821e4 <rtouch_calibrate+0xf8>)
   82170:	4798      	blx	r3
   82172:	4604      	mov	r4, r0
   82174:	b960      	cbnz	r0, 82190 <rtouch_calibrate+0xa4>
   82176:	f64f 70ff 	movw	r0, #65535	; 0xffff
   8217a:	4b11      	ldr	r3, [pc, #68]	; (821c0 <rtouch_calibrate+0xd4>)
   8217c:	4798      	blx	r3
   8217e:	2000      	movs	r0, #0
   82180:	4b10      	ldr	r3, [pc, #64]	; (821c4 <rtouch_calibrate+0xd8>)
   82182:	4798      	blx	r3
   82184:	4a18      	ldr	r2, [pc, #96]	; (821e8 <rtouch_calibrate+0xfc>)
   82186:	2182      	movs	r1, #130	; 0x82
   82188:	2014      	movs	r0, #20
   8218a:	4b10      	ldr	r3, [pc, #64]	; (821cc <rtouch_calibrate+0xe0>)
   8218c:	4798      	blx	r3
   8218e:	e012      	b.n	821b6 <rtouch_calibrate+0xca>
   82190:	f64f 70ff 	movw	r0, #65535	; 0xffff
   82194:	4b0a      	ldr	r3, [pc, #40]	; (821c0 <rtouch_calibrate+0xd4>)
   82196:	4798      	blx	r3
   82198:	2000      	movs	r0, #0
   8219a:	4b0a      	ldr	r3, [pc, #40]	; (821c4 <rtouch_calibrate+0xd8>)
   8219c:	4798      	blx	r3
   8219e:	4a13      	ldr	r2, [pc, #76]	; (821ec <rtouch_calibrate+0x100>)
   821a0:	2164      	movs	r1, #100	; 0x64
   821a2:	200a      	movs	r0, #10
   821a4:	4c09      	ldr	r4, [pc, #36]	; (821cc <rtouch_calibrate+0xe0>)
   821a6:	47a0      	blx	r4
   821a8:	4a11      	ldr	r2, [pc, #68]	; (821f0 <rtouch_calibrate+0x104>)
   821aa:	21be      	movs	r1, #190	; 0xbe
   821ac:	200a      	movs	r0, #10
   821ae:	47a0      	blx	r4
   821b0:	4b0b      	ldr	r3, [pc, #44]	; (821e0 <rtouch_calibrate+0xf4>)
   821b2:	4798      	blx	r3
   821b4:	2401      	movs	r4, #1
   821b6:	4620      	mov	r0, r4
   821b8:	b002      	add	sp, #8
   821ba:	e8bd 81f0 	ldmia.w	sp!, {r4, r5, r6, r7, r8, pc}
   821be:	bf00      	nop
   821c0:	000810c9 	.word	0x000810c9
   821c4:	00080e0d 	.word	0x00080e0d
   821c8:	00085b6c 	.word	0x00085b6c
   821cc:	000811e9 	.word	0x000811e9
   821d0:	00085b7c 	.word	0x00085b7c
   821d4:	20000120 	.word	0x20000120
   821d8:	00081131 	.word	0x00081131
   821dc:	00081385 	.word	0x00081385
   821e0:	00081c6d 	.word	0x00081c6d
   821e4:	00081cad 	.word	0x00081cad
   821e8:	00085ba4 	.word	0x00085ba4
   821ec:	00085bb8 	.word	0x00085bb8
   821f0:	00085bcc 	.word	0x00085bcc
   821f4:	00081c51 	.word	0x00081c51

000821f8 <__libc_init_array>:
   821f8:	b570      	push	{r4, r5, r6, lr}
   821fa:	4e0f      	ldr	r6, [pc, #60]	; (82238 <__libc_init_array+0x40>)
   821fc:	4d0f      	ldr	r5, [pc, #60]	; (8223c <__libc_init_array+0x44>)
   821fe:	1b76      	subs	r6, r6, r5
   82200:	10b6      	asrs	r6, r6, #2
   82202:	bf18      	it	ne
   82204:	2400      	movne	r4, #0
   82206:	d005      	beq.n	82214 <__libc_init_array+0x1c>
   82208:	3401      	adds	r4, #1
   8220a:	f855 3b04 	ldr.w	r3, [r5], #4
   8220e:	4798      	blx	r3
   82210:	42a6      	cmp	r6, r4
   82212:	d1f9      	bne.n	82208 <__libc_init_array+0x10>
   82214:	4e0a      	ldr	r6, [pc, #40]	; (82240 <__libc_init_array+0x48>)
   82216:	4d0b      	ldr	r5, [pc, #44]	; (82244 <__libc_init_array+0x4c>)
   82218:	f003 fd22 	bl	85c60 <_init>
   8221c:	1b76      	subs	r6, r6, r5
   8221e:	10b6      	asrs	r6, r6, #2
   82220:	bf18      	it	ne
   82222:	2400      	movne	r4, #0
   82224:	d006      	beq.n	82234 <__libc_init_array+0x3c>
   82226:	3401      	adds	r4, #1
   82228:	f855 3b04 	ldr.w	r3, [r5], #4
   8222c:	4798      	blx	r3
   8222e:	42a6      	cmp	r6, r4
   82230:	d1f9      	bne.n	82226 <__libc_init_array+0x2e>
   82232:	bd70      	pop	{r4, r5, r6, pc}
   82234:	bd70      	pop	{r4, r5, r6, pc}
   82236:	bf00      	nop
   82238:	00085c6c 	.word	0x00085c6c
   8223c:	00085c6c 	.word	0x00085c6c
   82240:	00085c74 	.word	0x00085c74
   82244:	00085c6c 	.word	0x00085c6c

00082248 <iprintf>:
   82248:	b40f      	push	{r0, r1, r2, r3}
   8224a:	b510      	push	{r4, lr}
   8224c:	4b07      	ldr	r3, [pc, #28]	; (8226c <iprintf+0x24>)
   8224e:	b082      	sub	sp, #8
   82250:	ac04      	add	r4, sp, #16
   82252:	f854 2b04 	ldr.w	r2, [r4], #4
   82256:	6818      	ldr	r0, [r3, #0]
   82258:	4623      	mov	r3, r4
   8225a:	6881      	ldr	r1, [r0, #8]
   8225c:	9401      	str	r4, [sp, #4]
   8225e:	f000 fa05 	bl	8266c <_vfiprintf_r>
   82262:	b002      	add	sp, #8
   82264:	e8bd 4010 	ldmia.w	sp!, {r4, lr}
   82268:	b004      	add	sp, #16
   8226a:	4770      	bx	lr
   8226c:	20000570 	.word	0x20000570

00082270 <__itoa>:
   82270:	1e93      	subs	r3, r2, #2
   82272:	2b22      	cmp	r3, #34	; 0x22
   82274:	d810      	bhi.n	82298 <__itoa+0x28>
   82276:	2a0a      	cmp	r2, #10
   82278:	b510      	push	{r4, lr}
   8227a:	d006      	beq.n	8228a <__itoa+0x1a>
   8227c:	2300      	movs	r3, #0
   8227e:	460c      	mov	r4, r1
   82280:	4419      	add	r1, r3
   82282:	f000 f977 	bl	82574 <__utoa>
   82286:	4620      	mov	r0, r4
   82288:	bd10      	pop	{r4, pc}
   8228a:	2800      	cmp	r0, #0
   8228c:	daf6      	bge.n	8227c <__itoa+0xc>
   8228e:	232d      	movs	r3, #45	; 0x2d
   82290:	700b      	strb	r3, [r1, #0]
   82292:	4240      	negs	r0, r0
   82294:	2301      	movs	r3, #1
   82296:	e7f2      	b.n	8227e <__itoa+0xe>
   82298:	2000      	movs	r0, #0
   8229a:	7008      	strb	r0, [r1, #0]
   8229c:	4770      	bx	lr
   8229e:	bf00      	nop

000822a0 <itoa>:
   822a0:	f7ff bfe6 	b.w	82270 <__itoa>

000822a4 <memset>:
   822a4:	b470      	push	{r4, r5, r6}
   822a6:	0784      	lsls	r4, r0, #30
   822a8:	d046      	beq.n	82338 <memset+0x94>
   822aa:	1e54      	subs	r4, r2, #1
   822ac:	2a00      	cmp	r2, #0
   822ae:	d041      	beq.n	82334 <memset+0x90>
   822b0:	b2cd      	uxtb	r5, r1
   822b2:	4603      	mov	r3, r0
   822b4:	e002      	b.n	822bc <memset+0x18>
   822b6:	1e62      	subs	r2, r4, #1
   822b8:	b3e4      	cbz	r4, 82334 <memset+0x90>
   822ba:	4614      	mov	r4, r2
   822bc:	f803 5b01 	strb.w	r5, [r3], #1
   822c0:	079a      	lsls	r2, r3, #30
   822c2:	d1f8      	bne.n	822b6 <memset+0x12>
   822c4:	2c03      	cmp	r4, #3
   822c6:	d92e      	bls.n	82326 <memset+0x82>
   822c8:	b2cd      	uxtb	r5, r1
   822ca:	ea45 2505 	orr.w	r5, r5, r5, lsl #8
   822ce:	2c0f      	cmp	r4, #15
   822d0:	ea45 4505 	orr.w	r5, r5, r5, lsl #16
   822d4:	d919      	bls.n	8230a <memset+0x66>
   822d6:	4626      	mov	r6, r4
   822d8:	f103 0210 	add.w	r2, r3, #16
   822dc:	3e10      	subs	r6, #16
   822de:	2e0f      	cmp	r6, #15
   822e0:	f842 5c10 	str.w	r5, [r2, #-16]
   822e4:	f842 5c0c 	str.w	r5, [r2, #-12]
   822e8:	f842 5c08 	str.w	r5, [r2, #-8]
   822ec:	f842 5c04 	str.w	r5, [r2, #-4]
   822f0:	f102 0210 	add.w	r2, r2, #16
   822f4:	d8f2      	bhi.n	822dc <memset+0x38>
   822f6:	f1a4 0210 	sub.w	r2, r4, #16
   822fa:	f022 020f 	bic.w	r2, r2, #15
   822fe:	f004 040f 	and.w	r4, r4, #15
   82302:	3210      	adds	r2, #16
   82304:	2c03      	cmp	r4, #3
   82306:	4413      	add	r3, r2
   82308:	d90d      	bls.n	82326 <memset+0x82>
   8230a:	461e      	mov	r6, r3
   8230c:	4622      	mov	r2, r4
   8230e:	3a04      	subs	r2, #4
   82310:	2a03      	cmp	r2, #3
   82312:	f846 5b04 	str.w	r5, [r6], #4
   82316:	d8fa      	bhi.n	8230e <memset+0x6a>
   82318:	1f22      	subs	r2, r4, #4
   8231a:	f022 0203 	bic.w	r2, r2, #3
   8231e:	3204      	adds	r2, #4
   82320:	4413      	add	r3, r2
   82322:	f004 0403 	and.w	r4, r4, #3
   82326:	b12c      	cbz	r4, 82334 <memset+0x90>
   82328:	b2c9      	uxtb	r1, r1
   8232a:	441c      	add	r4, r3
   8232c:	f803 1b01 	strb.w	r1, [r3], #1
   82330:	42a3      	cmp	r3, r4
   82332:	d1fb      	bne.n	8232c <memset+0x88>
   82334:	bc70      	pop	{r4, r5, r6}
   82336:	4770      	bx	lr
   82338:	4614      	mov	r4, r2
   8233a:	4603      	mov	r3, r0
   8233c:	e7c2      	b.n	822c4 <memset+0x20>
   8233e:	bf00      	nop

00082340 <_puts_r>:
   82340:	b5f0      	push	{r4, r5, r6, r7, lr}
   82342:	4605      	mov	r5, r0
   82344:	b089      	sub	sp, #36	; 0x24
   82346:	4608      	mov	r0, r1
   82348:	460c      	mov	r4, r1
   8234a:	f000 f8e5 	bl	82518 <strlen>
   8234e:	1c43      	adds	r3, r0, #1
   82350:	4f14      	ldr	r7, [pc, #80]	; (823a4 <_puts_r+0x64>)
   82352:	9303      	str	r3, [sp, #12]
   82354:	6bab      	ldr	r3, [r5, #56]	; 0x38
   82356:	2601      	movs	r6, #1
   82358:	a904      	add	r1, sp, #16
   8235a:	2202      	movs	r2, #2
   8235c:	9404      	str	r4, [sp, #16]
   8235e:	9005      	str	r0, [sp, #20]
   82360:	68ac      	ldr	r4, [r5, #8]
   82362:	9706      	str	r7, [sp, #24]
   82364:	9607      	str	r6, [sp, #28]
   82366:	9101      	str	r1, [sp, #4]
   82368:	9202      	str	r2, [sp, #8]
   8236a:	b1b3      	cbz	r3, 8239a <_puts_r+0x5a>
   8236c:	f9b4 300c 	ldrsh.w	r3, [r4, #12]
   82370:	049a      	lsls	r2, r3, #18
   82372:	d406      	bmi.n	82382 <_puts_r+0x42>
   82374:	6e62      	ldr	r2, [r4, #100]	; 0x64
   82376:	f443 5300 	orr.w	r3, r3, #8192	; 0x2000
   8237a:	f422 5200 	bic.w	r2, r2, #8192	; 0x2000
   8237e:	81a3      	strh	r3, [r4, #12]
   82380:	6662      	str	r2, [r4, #100]	; 0x64
   82382:	4621      	mov	r1, r4
   82384:	4628      	mov	r0, r5
   82386:	aa01      	add	r2, sp, #4
   82388:	f001 fbf6 	bl	83b78 <__sfvwrite_r>
   8238c:	2800      	cmp	r0, #0
   8238e:	bf14      	ite	ne
   82390:	f04f 30ff 	movne.w	r0, #4294967295
   82394:	200a      	moveq	r0, #10
   82396:	b009      	add	sp, #36	; 0x24
   82398:	bdf0      	pop	{r4, r5, r6, r7, pc}
   8239a:	4628      	mov	r0, r5
   8239c:	f001 fa3c 	bl	83818 <__sinit>
   823a0:	e7e4      	b.n	8236c <_puts_r+0x2c>
   823a2:	bf00      	nop
   823a4:	00085be4 	.word	0x00085be4

000823a8 <puts>:
   823a8:	4b02      	ldr	r3, [pc, #8]	; (823b4 <puts+0xc>)
   823aa:	4601      	mov	r1, r0
   823ac:	6818      	ldr	r0, [r3, #0]
   823ae:	f7ff bfc7 	b.w	82340 <_puts_r>
   823b2:	bf00      	nop
   823b4:	20000570 	.word	0x20000570

000823b8 <setbuf>:
   823b8:	2900      	cmp	r1, #0
   823ba:	bf0c      	ite	eq
   823bc:	2202      	moveq	r2, #2
   823be:	2200      	movne	r2, #0
   823c0:	f44f 6380 	mov.w	r3, #1024	; 0x400
   823c4:	f000 b800 	b.w	823c8 <setvbuf>

000823c8 <setvbuf>:
   823c8:	e92d 43f0 	stmdb	sp!, {r4, r5, r6, r7, r8, r9, lr}
   823cc:	4d51      	ldr	r5, [pc, #324]	; (82514 <setvbuf+0x14c>)
   823ce:	b083      	sub	sp, #12
   823d0:	682d      	ldr	r5, [r5, #0]
   823d2:	4604      	mov	r4, r0
   823d4:	460f      	mov	r7, r1
   823d6:	4690      	mov	r8, r2
   823d8:	461e      	mov	r6, r3
   823da:	b115      	cbz	r5, 823e2 <setvbuf+0x1a>
   823dc:	6bab      	ldr	r3, [r5, #56]	; 0x38
   823de:	2b00      	cmp	r3, #0
   823e0:	d079      	beq.n	824d6 <setvbuf+0x10e>
   823e2:	f1b8 0f02 	cmp.w	r8, #2
   823e6:	d004      	beq.n	823f2 <setvbuf+0x2a>
   823e8:	f1b8 0f01 	cmp.w	r8, #1
   823ec:	d87f      	bhi.n	824ee <setvbuf+0x126>
   823ee:	2e00      	cmp	r6, #0
   823f0:	db7d      	blt.n	824ee <setvbuf+0x126>
   823f2:	4621      	mov	r1, r4
   823f4:	4628      	mov	r0, r5
   823f6:	f001 f97b 	bl	836f0 <_fflush_r>
   823fa:	6b21      	ldr	r1, [r4, #48]	; 0x30
   823fc:	b141      	cbz	r1, 82410 <setvbuf+0x48>
   823fe:	f104 0340 	add.w	r3, r4, #64	; 0x40
   82402:	4299      	cmp	r1, r3
   82404:	d002      	beq.n	8240c <setvbuf+0x44>
   82406:	4628      	mov	r0, r5
   82408:	f001 face 	bl	839a8 <_free_r>
   8240c:	2300      	movs	r3, #0
   8240e:	6323      	str	r3, [r4, #48]	; 0x30
   82410:	f9b4 300c 	ldrsh.w	r3, [r4, #12]
   82414:	2200      	movs	r2, #0
   82416:	61a2      	str	r2, [r4, #24]
   82418:	6062      	str	r2, [r4, #4]
   8241a:	061a      	lsls	r2, r3, #24
   8241c:	d454      	bmi.n	824c8 <setvbuf+0x100>
   8241e:	f423 634a 	bic.w	r3, r3, #3232	; 0xca0
   82422:	f023 0303 	bic.w	r3, r3, #3
   82426:	f1b8 0f02 	cmp.w	r8, #2
   8242a:	81a3      	strh	r3, [r4, #12]
   8242c:	d039      	beq.n	824a2 <setvbuf+0xda>
   8242e:	ab01      	add	r3, sp, #4
   82430:	466a      	mov	r2, sp
   82432:	4621      	mov	r1, r4
   82434:	4628      	mov	r0, r5
   82436:	f001 fd55 	bl	83ee4 <__swhatbuf_r>
   8243a:	89a3      	ldrh	r3, [r4, #12]
   8243c:	4318      	orrs	r0, r3
   8243e:	81a0      	strh	r0, [r4, #12]
   82440:	b326      	cbz	r6, 8248c <setvbuf+0xc4>
   82442:	b327      	cbz	r7, 8248e <setvbuf+0xc6>
   82444:	6bab      	ldr	r3, [r5, #56]	; 0x38
   82446:	2b00      	cmp	r3, #0
   82448:	d04d      	beq.n	824e6 <setvbuf+0x11e>
   8244a:	9b00      	ldr	r3, [sp, #0]
   8244c:	f9b4 000c 	ldrsh.w	r0, [r4, #12]
   82450:	429e      	cmp	r6, r3
   82452:	bf1c      	itt	ne
   82454:	f440 6000 	orrne.w	r0, r0, #2048	; 0x800
   82458:	81a0      	strhne	r0, [r4, #12]
   8245a:	f1b8 0f01 	cmp.w	r8, #1
   8245e:	bf08      	it	eq
   82460:	f040 0001 	orreq.w	r0, r0, #1
   82464:	b283      	uxth	r3, r0
   82466:	bf08      	it	eq
   82468:	81a0      	strheq	r0, [r4, #12]
   8246a:	f003 0008 	and.w	r0, r3, #8
   8246e:	b280      	uxth	r0, r0
   82470:	6027      	str	r7, [r4, #0]
   82472:	6127      	str	r7, [r4, #16]
   82474:	6166      	str	r6, [r4, #20]
   82476:	b318      	cbz	r0, 824c0 <setvbuf+0xf8>
   82478:	f013 0001 	ands.w	r0, r3, #1
   8247c:	d02f      	beq.n	824de <setvbuf+0x116>
   8247e:	2000      	movs	r0, #0
   82480:	4276      	negs	r6, r6
   82482:	61a6      	str	r6, [r4, #24]
   82484:	60a0      	str	r0, [r4, #8]
   82486:	b003      	add	sp, #12
   82488:	e8bd 83f0 	ldmia.w	sp!, {r4, r5, r6, r7, r8, r9, pc}
   8248c:	9e00      	ldr	r6, [sp, #0]
   8248e:	4630      	mov	r0, r6
   82490:	f001 fd9c 	bl	83fcc <malloc>
   82494:	4607      	mov	r7, r0
   82496:	b368      	cbz	r0, 824f4 <setvbuf+0x12c>
   82498:	89a3      	ldrh	r3, [r4, #12]
   8249a:	f043 0380 	orr.w	r3, r3, #128	; 0x80
   8249e:	81a3      	strh	r3, [r4, #12]
   824a0:	e7d0      	b.n	82444 <setvbuf+0x7c>
   824a2:	2000      	movs	r0, #0
   824a4:	f104 0243 	add.w	r2, r4, #67	; 0x43
   824a8:	f043 0302 	orr.w	r3, r3, #2
   824ac:	2500      	movs	r5, #0
   824ae:	2101      	movs	r1, #1
   824b0:	81a3      	strh	r3, [r4, #12]
   824b2:	60a5      	str	r5, [r4, #8]
   824b4:	6022      	str	r2, [r4, #0]
   824b6:	6122      	str	r2, [r4, #16]
   824b8:	6161      	str	r1, [r4, #20]
   824ba:	b003      	add	sp, #12
   824bc:	e8bd 83f0 	ldmia.w	sp!, {r4, r5, r6, r7, r8, r9, pc}
   824c0:	60a0      	str	r0, [r4, #8]
   824c2:	b003      	add	sp, #12
   824c4:	e8bd 83f0 	ldmia.w	sp!, {r4, r5, r6, r7, r8, r9, pc}
   824c8:	6921      	ldr	r1, [r4, #16]
   824ca:	4628      	mov	r0, r5
   824cc:	f001 fa6c 	bl	839a8 <_free_r>
   824d0:	f9b4 300c 	ldrsh.w	r3, [r4, #12]
   824d4:	e7a3      	b.n	8241e <setvbuf+0x56>
   824d6:	4628      	mov	r0, r5
   824d8:	f001 f99e 	bl	83818 <__sinit>
   824dc:	e781      	b.n	823e2 <setvbuf+0x1a>
   824de:	60a6      	str	r6, [r4, #8]
   824e0:	b003      	add	sp, #12
   824e2:	e8bd 83f0 	ldmia.w	sp!, {r4, r5, r6, r7, r8, r9, pc}
   824e6:	4628      	mov	r0, r5
   824e8:	f001 f996 	bl	83818 <__sinit>
   824ec:	e7ad      	b.n	8244a <setvbuf+0x82>
   824ee:	f04f 30ff 	mov.w	r0, #4294967295
   824f2:	e7e2      	b.n	824ba <setvbuf+0xf2>
   824f4:	f8dd 9000 	ldr.w	r9, [sp]
   824f8:	45b1      	cmp	r9, r6
   824fa:	d006      	beq.n	8250a <setvbuf+0x142>
   824fc:	4648      	mov	r0, r9
   824fe:	f001 fd65 	bl	83fcc <malloc>
   82502:	4607      	mov	r7, r0
   82504:	b108      	cbz	r0, 8250a <setvbuf+0x142>
   82506:	464e      	mov	r6, r9
   82508:	e7c6      	b.n	82498 <setvbuf+0xd0>
   8250a:	f9b4 300c 	ldrsh.w	r3, [r4, #12]
   8250e:	f04f 30ff 	mov.w	r0, #4294967295
   82512:	e7c7      	b.n	824a4 <setvbuf+0xdc>
   82514:	20000570 	.word	0x20000570

00082518 <strlen>:
   82518:	f020 0103 	bic.w	r1, r0, #3
   8251c:	f010 0003 	ands.w	r0, r0, #3
   82520:	f1c0 0000 	rsb	r0, r0, #0
   82524:	f851 3b04 	ldr.w	r3, [r1], #4
   82528:	f100 0c04 	add.w	ip, r0, #4
   8252c:	ea4f 0ccc 	mov.w	ip, ip, lsl #3
   82530:	f06f 0200 	mvn.w	r2, #0
   82534:	bf1c      	itt	ne
   82536:	fa22 f20c 	lsrne.w	r2, r2, ip
   8253a:	4313      	orrne	r3, r2
   8253c:	f04f 0c01 	mov.w	ip, #1
   82540:	ea4c 2c0c 	orr.w	ip, ip, ip, lsl #8
   82544:	ea4c 4c0c 	orr.w	ip, ip, ip, lsl #16
   82548:	eba3 020c 	sub.w	r2, r3, ip
   8254c:	ea22 0203 	bic.w	r2, r2, r3
   82550:	ea12 12cc 	ands.w	r2, r2, ip, lsl #7
   82554:	bf04      	itt	eq
   82556:	f851 3b04 	ldreq.w	r3, [r1], #4
   8255a:	3004      	addeq	r0, #4
   8255c:	d0f4      	beq.n	82548 <strlen+0x30>
   8255e:	f1c2 0100 	rsb	r1, r2, #0
   82562:	ea02 0201 	and.w	r2, r2, r1
   82566:	fab2 f282 	clz	r2, r2
   8256a:	f1c2 021f 	rsb	r2, r2, #31
   8256e:	eb00 00d2 	add.w	r0, r0, r2, lsr #3
   82572:	4770      	bx	lr

00082574 <__utoa>:
   82574:	b5f0      	push	{r4, r5, r6, r7, lr}
   82576:	b08b      	sub	sp, #44	; 0x2c
   82578:	466f      	mov	r7, sp
   8257a:	4615      	mov	r5, r2
   8257c:	f8df e070 	ldr.w	lr, [pc, #112]	; 825f0 <__utoa+0x7c>
   82580:	4604      	mov	r4, r0
   82582:	460e      	mov	r6, r1
   82584:	e8be 000f 	ldmia.w	lr!, {r0, r1, r2, r3}
   82588:	c70f      	stmia	r7!, {r0, r1, r2, r3}
   8258a:	e8be 000f 	ldmia.w	lr!, {r0, r1, r2, r3}
   8258e:	c70f      	stmia	r7!, {r0, r1, r2, r3}
   82590:	e89e 0003 	ldmia.w	lr, {r0, r1}
   82594:	1eab      	subs	r3, r5, #2
   82596:	f847 0b04 	str.w	r0, [r7], #4
   8259a:	2b22      	cmp	r3, #34	; 0x22
   8259c:	7039      	strb	r1, [r7, #0]
   8259e:	d822      	bhi.n	825e6 <__utoa+0x72>
   825a0:	1e71      	subs	r1, r6, #1
   825a2:	4608      	mov	r0, r1
   825a4:	2300      	movs	r3, #0
   825a6:	e000      	b.n	825aa <__utoa+0x36>
   825a8:	4613      	mov	r3, r2
   825aa:	fbb4 f2f5 	udiv	r2, r4, r5
   825ae:	fb05 4412 	mls	r4, r5, r2, r4
   825b2:	af0a      	add	r7, sp, #40	; 0x28
   825b4:	443c      	add	r4, r7
   825b6:	f814 7c28 	ldrb.w	r7, [r4, #-40]
   825ba:	4614      	mov	r4, r2
   825bc:	f800 7f01 	strb.w	r7, [r0, #1]!
   825c0:	1c5a      	adds	r2, r3, #1
   825c2:	2c00      	cmp	r4, #0
   825c4:	d1f0      	bne.n	825a8 <__utoa+0x34>
   825c6:	54b4      	strb	r4, [r6, r2]
   825c8:	18f2      	adds	r2, r6, r3
   825ca:	b14b      	cbz	r3, 825e0 <__utoa+0x6c>
   825cc:	3401      	adds	r4, #1
   825ce:	f811 5f01 	ldrb.w	r5, [r1, #1]!
   825d2:	7817      	ldrb	r7, [r2, #0]
   825d4:	1b18      	subs	r0, r3, r4
   825d6:	4284      	cmp	r4, r0
   825d8:	700f      	strb	r7, [r1, #0]
   825da:	f802 5901 	strb.w	r5, [r2], #-1
   825de:	dbf5      	blt.n	825cc <__utoa+0x58>
   825e0:	4630      	mov	r0, r6
   825e2:	b00b      	add	sp, #44	; 0x2c
   825e4:	bdf0      	pop	{r4, r5, r6, r7, pc}
   825e6:	2000      	movs	r0, #0
   825e8:	7030      	strb	r0, [r6, #0]
   825ea:	b00b      	add	sp, #44	; 0x2c
   825ec:	bdf0      	pop	{r4, r5, r6, r7, pc}
   825ee:	bf00      	nop
   825f0:	00085be8 	.word	0x00085be8

000825f4 <__sprint_r.part.0>:
   825f4:	6e4b      	ldr	r3, [r1, #100]	; 0x64
   825f6:	e92d 47f0 	stmdb	sp!, {r4, r5, r6, r7, r8, r9, sl, lr}
   825fa:	049c      	lsls	r4, r3, #18
   825fc:	4692      	mov	sl, r2
   825fe:	d52c      	bpl.n	8265a <__sprint_r.part.0+0x66>
   82600:	6893      	ldr	r3, [r2, #8]
   82602:	6812      	ldr	r2, [r2, #0]
   82604:	b33b      	cbz	r3, 82656 <__sprint_r.part.0+0x62>
   82606:	460f      	mov	r7, r1
   82608:	4680      	mov	r8, r0
   8260a:	f102 0908 	add.w	r9, r2, #8
   8260e:	e919 0060 	ldmdb	r9, {r5, r6}
   82612:	08b6      	lsrs	r6, r6, #2
   82614:	d017      	beq.n	82646 <__sprint_r.part.0+0x52>
   82616:	3d04      	subs	r5, #4
   82618:	2400      	movs	r4, #0
   8261a:	e001      	b.n	82620 <__sprint_r.part.0+0x2c>
   8261c:	42a6      	cmp	r6, r4
   8261e:	d010      	beq.n	82642 <__sprint_r.part.0+0x4e>
   82620:	463a      	mov	r2, r7
   82622:	f855 1f04 	ldr.w	r1, [r5, #4]!
   82626:	4640      	mov	r0, r8
   82628:	f001 f95e 	bl	838e8 <_fputwc_r>
   8262c:	1c43      	adds	r3, r0, #1
   8262e:	f104 0401 	add.w	r4, r4, #1
   82632:	d1f3      	bne.n	8261c <__sprint_r.part.0+0x28>
   82634:	2300      	movs	r3, #0
   82636:	f8ca 3008 	str.w	r3, [sl, #8]
   8263a:	f8ca 3004 	str.w	r3, [sl, #4]
   8263e:	e8bd 87f0 	ldmia.w	sp!, {r4, r5, r6, r7, r8, r9, sl, pc}
   82642:	f8da 3008 	ldr.w	r3, [sl, #8]
   82646:	eba3 0386 	sub.w	r3, r3, r6, lsl #2
   8264a:	f8ca 3008 	str.w	r3, [sl, #8]
   8264e:	f109 0908 	add.w	r9, r9, #8
   82652:	2b00      	cmp	r3, #0
   82654:	d1db      	bne.n	8260e <__sprint_r.part.0+0x1a>
   82656:	2000      	movs	r0, #0
   82658:	e7ec      	b.n	82634 <__sprint_r.part.0+0x40>
   8265a:	f001 fa8d 	bl	83b78 <__sfvwrite_r>
   8265e:	2300      	movs	r3, #0
   82660:	f8ca 3008 	str.w	r3, [sl, #8]
   82664:	f8ca 3004 	str.w	r3, [sl, #4]
   82668:	e8bd 87f0 	ldmia.w	sp!, {r4, r5, r6, r7, r8, r9, sl, pc}

0008266c <_vfiprintf_r>:
   8266c:	e92d 4ff0 	stmdb	sp!, {r4, r5, r6, r7, r8, r9, sl, fp, lr}
   82670:	b0ab      	sub	sp, #172	; 0xac
   82672:	461c      	mov	r4, r3
   82674:	9100      	str	r1, [sp, #0]
   82676:	4690      	mov	r8, r2
   82678:	9304      	str	r3, [sp, #16]
   8267a:	9005      	str	r0, [sp, #20]
   8267c:	b118      	cbz	r0, 82686 <_vfiprintf_r+0x1a>
   8267e:	6b83      	ldr	r3, [r0, #56]	; 0x38
   82680:	2b00      	cmp	r3, #0
   82682:	f000 80de 	beq.w	82842 <_vfiprintf_r+0x1d6>
   82686:	9800      	ldr	r0, [sp, #0]
   82688:	f9b0 100c 	ldrsh.w	r1, [r0, #12]
   8268c:	b28a      	uxth	r2, r1
   8268e:	0495      	lsls	r5, r2, #18
   82690:	d407      	bmi.n	826a2 <_vfiprintf_r+0x36>
   82692:	6e43      	ldr	r3, [r0, #100]	; 0x64
   82694:	f441 5200 	orr.w	r2, r1, #8192	; 0x2000
   82698:	f423 5300 	bic.w	r3, r3, #8192	; 0x2000
   8269c:	8182      	strh	r2, [r0, #12]
   8269e:	6643      	str	r3, [r0, #100]	; 0x64
   826a0:	b292      	uxth	r2, r2
   826a2:	0711      	lsls	r1, r2, #28
   826a4:	f140 80b1 	bpl.w	8280a <_vfiprintf_r+0x19e>
   826a8:	9b00      	ldr	r3, [sp, #0]
   826aa:	691b      	ldr	r3, [r3, #16]
   826ac:	2b00      	cmp	r3, #0
   826ae:	f000 80ac 	beq.w	8280a <_vfiprintf_r+0x19e>
   826b2:	f002 021a 	and.w	r2, r2, #26
   826b6:	2a0a      	cmp	r2, #10
   826b8:	f000 80b5 	beq.w	82826 <_vfiprintf_r+0x1ba>
   826bc:	f10d 0a68 	add.w	sl, sp, #104	; 0x68
   826c0:	46d3      	mov	fp, sl
   826c2:	2300      	movs	r3, #0
   826c4:	9302      	str	r3, [sp, #8]
   826c6:	930f      	str	r3, [sp, #60]	; 0x3c
   826c8:	930e      	str	r3, [sp, #56]	; 0x38
   826ca:	f8cd a034 	str.w	sl, [sp, #52]	; 0x34
   826ce:	f898 3000 	ldrb.w	r3, [r8]
   826d2:	4644      	mov	r4, r8
   826d4:	b1fb      	cbz	r3, 82716 <_vfiprintf_r+0xaa>
   826d6:	2b25      	cmp	r3, #37	; 0x25
   826d8:	d102      	bne.n	826e0 <_vfiprintf_r+0x74>
   826da:	e01c      	b.n	82716 <_vfiprintf_r+0xaa>
   826dc:	2b25      	cmp	r3, #37	; 0x25
   826de:	d003      	beq.n	826e8 <_vfiprintf_r+0x7c>
   826e0:	f814 3f01 	ldrb.w	r3, [r4, #1]!
   826e4:	2b00      	cmp	r3, #0
   826e6:	d1f9      	bne.n	826dc <_vfiprintf_r+0x70>
   826e8:	ebc8 0504 	rsb	r5, r8, r4
   826ec:	b19d      	cbz	r5, 82716 <_vfiprintf_r+0xaa>
   826ee:	9b0e      	ldr	r3, [sp, #56]	; 0x38
   826f0:	9a0f      	ldr	r2, [sp, #60]	; 0x3c
   826f2:	3301      	adds	r3, #1
   826f4:	442a      	add	r2, r5
   826f6:	2b07      	cmp	r3, #7
   826f8:	f8cb 8000 	str.w	r8, [fp]
   826fc:	f8cb 5004 	str.w	r5, [fp, #4]
   82700:	920f      	str	r2, [sp, #60]	; 0x3c
   82702:	930e      	str	r3, [sp, #56]	; 0x38
   82704:	dd7b      	ble.n	827fe <_vfiprintf_r+0x192>
   82706:	2a00      	cmp	r2, #0
   82708:	f040 851f 	bne.w	8314a <_vfiprintf_r+0xade>
   8270c:	46d3      	mov	fp, sl
   8270e:	9b02      	ldr	r3, [sp, #8]
   82710:	920e      	str	r2, [sp, #56]	; 0x38
   82712:	442b      	add	r3, r5
   82714:	9302      	str	r3, [sp, #8]
   82716:	7823      	ldrb	r3, [r4, #0]
   82718:	2b00      	cmp	r3, #0
   8271a:	f000 843b 	beq.w	82f94 <_vfiprintf_r+0x928>
   8271e:	f04f 0300 	mov.w	r3, #0
   82722:	2100      	movs	r1, #0
   82724:	f88d 302f 	strb.w	r3, [sp, #47]	; 0x2f
   82728:	f104 0801 	add.w	r8, r4, #1
   8272c:	7863      	ldrb	r3, [r4, #1]
   8272e:	4608      	mov	r0, r1
   82730:	460e      	mov	r6, r1
   82732:	460c      	mov	r4, r1
   82734:	f04f 32ff 	mov.w	r2, #4294967295
   82738:	9201      	str	r2, [sp, #4]
   8273a:	f108 0801 	add.w	r8, r8, #1
   8273e:	f1a3 0220 	sub.w	r2, r3, #32
   82742:	2a58      	cmp	r2, #88	; 0x58
   82744:	f200 838b 	bhi.w	82e5e <_vfiprintf_r+0x7f2>
   82748:	e8df f012 	tbh	[pc, r2, lsl #1]
   8274c:	0389033d 	.word	0x0389033d
   82750:	03450389 	.word	0x03450389
   82754:	03890389 	.word	0x03890389
   82758:	03890389 	.word	0x03890389
   8275c:	03890389 	.word	0x03890389
   82760:	026b007e 	.word	0x026b007e
   82764:	00860389 	.word	0x00860389
   82768:	03890270 	.word	0x03890270
   8276c:	025d01cc 	.word	0x025d01cc
   82770:	025d025d 	.word	0x025d025d
   82774:	025d025d 	.word	0x025d025d
   82778:	025d025d 	.word	0x025d025d
   8277c:	025d025d 	.word	0x025d025d
   82780:	03890389 	.word	0x03890389
   82784:	03890389 	.word	0x03890389
   82788:	03890389 	.word	0x03890389
   8278c:	03890389 	.word	0x03890389
   82790:	03890389 	.word	0x03890389
   82794:	038901d1 	.word	0x038901d1
   82798:	03890389 	.word	0x03890389
   8279c:	03890389 	.word	0x03890389
   827a0:	03890389 	.word	0x03890389
   827a4:	03890389 	.word	0x03890389
   827a8:	021a0389 	.word	0x021a0389
   827ac:	03890389 	.word	0x03890389
   827b0:	03890389 	.word	0x03890389
   827b4:	02e50389 	.word	0x02e50389
   827b8:	03890389 	.word	0x03890389
   827bc:	03890308 	.word	0x03890308
   827c0:	03890389 	.word	0x03890389
   827c4:	03890389 	.word	0x03890389
   827c8:	03890389 	.word	0x03890389
   827cc:	03890389 	.word	0x03890389
   827d0:	032b0389 	.word	0x032b0389
   827d4:	03890382 	.word	0x03890382
   827d8:	03890389 	.word	0x03890389
   827dc:	0382035e 	.word	0x0382035e
   827e0:	03890389 	.word	0x03890389
   827e4:	03890363 	.word	0x03890363
   827e8:	028d0370 	.word	0x028d0370
   827ec:	02e0008b 	.word	0x02e0008b
   827f0:	02930389 	.word	0x02930389
   827f4:	02b20389 	.word	0x02b20389
   827f8:	03890389 	.word	0x03890389
   827fc:	034a      	.short	0x034a
   827fe:	f10b 0b08 	add.w	fp, fp, #8
   82802:	9b02      	ldr	r3, [sp, #8]
   82804:	442b      	add	r3, r5
   82806:	9302      	str	r3, [sp, #8]
   82808:	e785      	b.n	82716 <_vfiprintf_r+0xaa>
   8280a:	9900      	ldr	r1, [sp, #0]
   8280c:	9805      	ldr	r0, [sp, #20]
   8280e:	f000 fe57 	bl	834c0 <__swsetup_r>
   82812:	2800      	cmp	r0, #0
   82814:	f040 8545 	bne.w	832a2 <_vfiprintf_r+0xc36>
   82818:	9b00      	ldr	r3, [sp, #0]
   8281a:	899a      	ldrh	r2, [r3, #12]
   8281c:	f002 021a 	and.w	r2, r2, #26
   82820:	2a0a      	cmp	r2, #10
   82822:	f47f af4b 	bne.w	826bc <_vfiprintf_r+0x50>
   82826:	9900      	ldr	r1, [sp, #0]
   82828:	f9b1 300e 	ldrsh.w	r3, [r1, #14]
   8282c:	2b00      	cmp	r3, #0
   8282e:	f6ff af45 	blt.w	826bc <_vfiprintf_r+0x50>
   82832:	4623      	mov	r3, r4
   82834:	4642      	mov	r2, r8
   82836:	9805      	ldr	r0, [sp, #20]
   82838:	f000 fe0c 	bl	83454 <__sbprintf>
   8283c:	b02b      	add	sp, #172	; 0xac
   8283e:	e8bd 8ff0 	ldmia.w	sp!, {r4, r5, r6, r7, r8, r9, sl, fp, pc}
   82842:	f000 ffe9 	bl	83818 <__sinit>
   82846:	e71e      	b.n	82686 <_vfiprintf_r+0x1a>
   82848:	9a04      	ldr	r2, [sp, #16]
   8284a:	4613      	mov	r3, r2
   8284c:	6814      	ldr	r4, [r2, #0]
   8284e:	3304      	adds	r3, #4
   82850:	2c00      	cmp	r4, #0
   82852:	9304      	str	r3, [sp, #16]
   82854:	da02      	bge.n	8285c <_vfiprintf_r+0x1f0>
   82856:	4264      	negs	r4, r4
   82858:	f046 0604 	orr.w	r6, r6, #4
   8285c:	f898 3000 	ldrb.w	r3, [r8]
   82860:	e76b      	b.n	8273a <_vfiprintf_r+0xce>
   82862:	f04f 0300 	mov.w	r3, #0
   82866:	9804      	ldr	r0, [sp, #16]
   82868:	f88d 302f 	strb.w	r3, [sp, #47]	; 0x2f
   8286c:	4603      	mov	r3, r0
   8286e:	2130      	movs	r1, #48	; 0x30
   82870:	f88d 1030 	strb.w	r1, [sp, #48]	; 0x30
   82874:	9901      	ldr	r1, [sp, #4]
   82876:	2278      	movs	r2, #120	; 0x78
   82878:	2900      	cmp	r1, #0
   8287a:	9406      	str	r4, [sp, #24]
   8287c:	f88d 2031 	strb.w	r2, [sp, #49]	; 0x31
   82880:	6804      	ldr	r4, [r0, #0]
   82882:	f103 0304 	add.w	r3, r3, #4
   82886:	f04f 0500 	mov.w	r5, #0
   8288a:	f046 0202 	orr.w	r2, r6, #2
   8288e:	f2c0 850c 	blt.w	832aa <_vfiprintf_r+0xc3e>
   82892:	f026 0680 	bic.w	r6, r6, #128	; 0x80
   82896:	ea54 0205 	orrs.w	r2, r4, r5
   8289a:	f046 0602 	orr.w	r6, r6, #2
   8289e:	9304      	str	r3, [sp, #16]
   828a0:	f040 84b5 	bne.w	8320e <_vfiprintf_r+0xba2>
   828a4:	48b3      	ldr	r0, [pc, #716]	; (82b74 <_vfiprintf_r+0x508>)
   828a6:	9b01      	ldr	r3, [sp, #4]
   828a8:	2b00      	cmp	r3, #0
   828aa:	f040 8462 	bne.w	83172 <_vfiprintf_r+0xb06>
   828ae:	4699      	mov	r9, r3
   828b0:	4657      	mov	r7, sl
   828b2:	2300      	movs	r3, #0
   828b4:	9301      	str	r3, [sp, #4]
   828b6:	9303      	str	r3, [sp, #12]
   828b8:	9b01      	ldr	r3, [sp, #4]
   828ba:	9a03      	ldr	r2, [sp, #12]
   828bc:	4293      	cmp	r3, r2
   828be:	bfb8      	it	lt
   828c0:	4613      	movlt	r3, r2
   828c2:	461d      	mov	r5, r3
   828c4:	f1b9 0f00 	cmp.w	r9, #0
   828c8:	d000      	beq.n	828cc <_vfiprintf_r+0x260>
   828ca:	3501      	adds	r5, #1
   828cc:	f016 0302 	ands.w	r3, r6, #2
   828d0:	9307      	str	r3, [sp, #28]
   828d2:	bf18      	it	ne
   828d4:	3502      	addne	r5, #2
   828d6:	f016 0384 	ands.w	r3, r6, #132	; 0x84
   828da:	9308      	str	r3, [sp, #32]
   828dc:	f040 82e8 	bne.w	82eb0 <_vfiprintf_r+0x844>
   828e0:	9b06      	ldr	r3, [sp, #24]
   828e2:	1b5c      	subs	r4, r3, r5
   828e4:	2c00      	cmp	r4, #0
   828e6:	f340 82e3 	ble.w	82eb0 <_vfiprintf_r+0x844>
   828ea:	2c10      	cmp	r4, #16
   828ec:	f340 853c 	ble.w	83368 <_vfiprintf_r+0xcfc>
   828f0:	f8df 9284 	ldr.w	r9, [pc, #644]	; 82b78 <_vfiprintf_r+0x50c>
   828f4:	f8dd e038 	ldr.w	lr, [sp, #56]	; 0x38
   828f8:	46dc      	mov	ip, fp
   828fa:	9a0f      	ldr	r2, [sp, #60]	; 0x3c
   828fc:	46c3      	mov	fp, r8
   828fe:	2310      	movs	r3, #16
   82900:	46a8      	mov	r8, r5
   82902:	4670      	mov	r0, lr
   82904:	464d      	mov	r5, r9
   82906:	f8dd 9014 	ldr.w	r9, [sp, #20]
   8290a:	e007      	b.n	8291c <_vfiprintf_r+0x2b0>
   8290c:	f100 0e02 	add.w	lr, r0, #2
   82910:	4608      	mov	r0, r1
   82912:	f10c 0c08 	add.w	ip, ip, #8
   82916:	3c10      	subs	r4, #16
   82918:	2c10      	cmp	r4, #16
   8291a:	dd13      	ble.n	82944 <_vfiprintf_r+0x2d8>
   8291c:	1c41      	adds	r1, r0, #1
   8291e:	3210      	adds	r2, #16
   82920:	2907      	cmp	r1, #7
   82922:	920f      	str	r2, [sp, #60]	; 0x3c
   82924:	f8cc 5000 	str.w	r5, [ip]
   82928:	f8cc 3004 	str.w	r3, [ip, #4]
   8292c:	910e      	str	r1, [sp, #56]	; 0x38
   8292e:	dded      	ble.n	8290c <_vfiprintf_r+0x2a0>
   82930:	2a00      	cmp	r2, #0
   82932:	f040 82a5 	bne.w	82e80 <_vfiprintf_r+0x814>
   82936:	3c10      	subs	r4, #16
   82938:	2c10      	cmp	r4, #16
   8293a:	4610      	mov	r0, r2
   8293c:	f04f 0e01 	mov.w	lr, #1
   82940:	46d4      	mov	ip, sl
   82942:	dceb      	bgt.n	8291c <_vfiprintf_r+0x2b0>
   82944:	46a9      	mov	r9, r5
   82946:	4670      	mov	r0, lr
   82948:	4645      	mov	r5, r8
   8294a:	46d8      	mov	r8, fp
   8294c:	46e3      	mov	fp, ip
   8294e:	4422      	add	r2, r4
   82950:	2807      	cmp	r0, #7
   82952:	920f      	str	r2, [sp, #60]	; 0x3c
   82954:	f8cb 9000 	str.w	r9, [fp]
   82958:	f8cb 4004 	str.w	r4, [fp, #4]
   8295c:	900e      	str	r0, [sp, #56]	; 0x38
   8295e:	f300 836d 	bgt.w	8303c <_vfiprintf_r+0x9d0>
   82962:	f89d 302f 	ldrb.w	r3, [sp, #47]	; 0x2f
   82966:	f10b 0b08 	add.w	fp, fp, #8
   8296a:	f100 0e01 	add.w	lr, r0, #1
   8296e:	2b00      	cmp	r3, #0
   82970:	f040 82a7 	bne.w	82ec2 <_vfiprintf_r+0x856>
   82974:	9b07      	ldr	r3, [sp, #28]
   82976:	2b00      	cmp	r3, #0
   82978:	f000 82ba 	beq.w	82ef0 <_vfiprintf_r+0x884>
   8297c:	3202      	adds	r2, #2
   8297e:	a90c      	add	r1, sp, #48	; 0x30
   82980:	2302      	movs	r3, #2
   82982:	f1be 0f07 	cmp.w	lr, #7
   82986:	920f      	str	r2, [sp, #60]	; 0x3c
   82988:	f8cd e038 	str.w	lr, [sp, #56]	; 0x38
   8298c:	e88b 000a 	stmia.w	fp, {r1, r3}
   82990:	f340 8370 	ble.w	83074 <_vfiprintf_r+0xa08>
   82994:	2a00      	cmp	r2, #0
   82996:	f040 8400 	bne.w	8319a <_vfiprintf_r+0xb2e>
   8299a:	9b08      	ldr	r3, [sp, #32]
   8299c:	f04f 0e01 	mov.w	lr, #1
   829a0:	2b80      	cmp	r3, #128	; 0x80
   829a2:	4610      	mov	r0, r2
   829a4:	46d3      	mov	fp, sl
   829a6:	f040 82a7 	bne.w	82ef8 <_vfiprintf_r+0x88c>
   829aa:	9b06      	ldr	r3, [sp, #24]
   829ac:	1b5c      	subs	r4, r3, r5
   829ae:	2c00      	cmp	r4, #0
   829b0:	f340 82a2 	ble.w	82ef8 <_vfiprintf_r+0x88c>
   829b4:	2c10      	cmp	r4, #16
   829b6:	f340 84f8 	ble.w	833aa <_vfiprintf_r+0xd3e>
   829ba:	f8df 91c0 	ldr.w	r9, [pc, #448]	; 82b7c <_vfiprintf_r+0x510>
   829be:	46de      	mov	lr, fp
   829c0:	2310      	movs	r3, #16
   829c2:	46c3      	mov	fp, r8
   829c4:	46a8      	mov	r8, r5
   829c6:	464d      	mov	r5, r9
   829c8:	f8dd 9014 	ldr.w	r9, [sp, #20]
   829cc:	e007      	b.n	829de <_vfiprintf_r+0x372>
   829ce:	f100 0c02 	add.w	ip, r0, #2
   829d2:	4608      	mov	r0, r1
   829d4:	f10e 0e08 	add.w	lr, lr, #8
   829d8:	3c10      	subs	r4, #16
   829da:	2c10      	cmp	r4, #16
   829dc:	dd13      	ble.n	82a06 <_vfiprintf_r+0x39a>
   829de:	1c41      	adds	r1, r0, #1
   829e0:	3210      	adds	r2, #16
   829e2:	2907      	cmp	r1, #7
   829e4:	920f      	str	r2, [sp, #60]	; 0x3c
   829e6:	f8ce 5000 	str.w	r5, [lr]
   829ea:	f8ce 3004 	str.w	r3, [lr, #4]
   829ee:	910e      	str	r1, [sp, #56]	; 0x38
   829f0:	dded      	ble.n	829ce <_vfiprintf_r+0x362>
   829f2:	2a00      	cmp	r2, #0
   829f4:	f040 830c 	bne.w	83010 <_vfiprintf_r+0x9a4>
   829f8:	3c10      	subs	r4, #16
   829fa:	2c10      	cmp	r4, #16
   829fc:	f04f 0c01 	mov.w	ip, #1
   82a00:	4610      	mov	r0, r2
   82a02:	46d6      	mov	lr, sl
   82a04:	dceb      	bgt.n	829de <_vfiprintf_r+0x372>
   82a06:	46a9      	mov	r9, r5
   82a08:	4645      	mov	r5, r8
   82a0a:	46d8      	mov	r8, fp
   82a0c:	46f3      	mov	fp, lr
   82a0e:	4422      	add	r2, r4
   82a10:	f1bc 0f07 	cmp.w	ip, #7
   82a14:	920f      	str	r2, [sp, #60]	; 0x3c
   82a16:	f8cb 9000 	str.w	r9, [fp]
   82a1a:	f8cb 4004 	str.w	r4, [fp, #4]
   82a1e:	f8cd c038 	str.w	ip, [sp, #56]	; 0x38
   82a22:	f300 83c8 	bgt.w	831b6 <_vfiprintf_r+0xb4a>
   82a26:	9b01      	ldr	r3, [sp, #4]
   82a28:	9903      	ldr	r1, [sp, #12]
   82a2a:	f10b 0b08 	add.w	fp, fp, #8
   82a2e:	1a5c      	subs	r4, r3, r1
   82a30:	2c00      	cmp	r4, #0
   82a32:	f10c 0e01 	add.w	lr, ip, #1
   82a36:	4660      	mov	r0, ip
   82a38:	f300 8264 	bgt.w	82f04 <_vfiprintf_r+0x898>
   82a3c:	9903      	ldr	r1, [sp, #12]
   82a3e:	f1be 0f07 	cmp.w	lr, #7
   82a42:	440a      	add	r2, r1
   82a44:	920f      	str	r2, [sp, #60]	; 0x3c
   82a46:	f8cb 7000 	str.w	r7, [fp]
   82a4a:	f8cb 1004 	str.w	r1, [fp, #4]
   82a4e:	f8cd e038 	str.w	lr, [sp, #56]	; 0x38
   82a52:	f340 82c5 	ble.w	82fe0 <_vfiprintf_r+0x974>
   82a56:	2a00      	cmp	r2, #0
   82a58:	f040 8332 	bne.w	830c0 <_vfiprintf_r+0xa54>
   82a5c:	0770      	lsls	r0, r6, #29
   82a5e:	920e      	str	r2, [sp, #56]	; 0x38
   82a60:	d538      	bpl.n	82ad4 <_vfiprintf_r+0x468>
   82a62:	9b06      	ldr	r3, [sp, #24]
   82a64:	1b5c      	subs	r4, r3, r5
   82a66:	2c00      	cmp	r4, #0
   82a68:	dd34      	ble.n	82ad4 <_vfiprintf_r+0x468>
   82a6a:	46d3      	mov	fp, sl
   82a6c:	2c10      	cmp	r4, #16
   82a6e:	f340 8496 	ble.w	8339e <_vfiprintf_r+0xd32>
   82a72:	f8df 9104 	ldr.w	r9, [pc, #260]	; 82b78 <_vfiprintf_r+0x50c>
   82a76:	990e      	ldr	r1, [sp, #56]	; 0x38
   82a78:	464f      	mov	r7, r9
   82a7a:	2610      	movs	r6, #16
   82a7c:	f8dd 9014 	ldr.w	r9, [sp, #20]
   82a80:	e006      	b.n	82a90 <_vfiprintf_r+0x424>
   82a82:	1c88      	adds	r0, r1, #2
   82a84:	4619      	mov	r1, r3
   82a86:	f10b 0b08 	add.w	fp, fp, #8
   82a8a:	3c10      	subs	r4, #16
   82a8c:	2c10      	cmp	r4, #16
   82a8e:	dd13      	ble.n	82ab8 <_vfiprintf_r+0x44c>
   82a90:	1c4b      	adds	r3, r1, #1
   82a92:	3210      	adds	r2, #16
   82a94:	2b07      	cmp	r3, #7
   82a96:	920f      	str	r2, [sp, #60]	; 0x3c
   82a98:	f8cb 7000 	str.w	r7, [fp]
   82a9c:	f8cb 6004 	str.w	r6, [fp, #4]
   82aa0:	930e      	str	r3, [sp, #56]	; 0x38
   82aa2:	ddee      	ble.n	82a82 <_vfiprintf_r+0x416>
   82aa4:	2a00      	cmp	r2, #0
   82aa6:	f040 8285 	bne.w	82fb4 <_vfiprintf_r+0x948>
   82aaa:	3c10      	subs	r4, #16
   82aac:	2c10      	cmp	r4, #16
   82aae:	f04f 0001 	mov.w	r0, #1
   82ab2:	4611      	mov	r1, r2
   82ab4:	46d3      	mov	fp, sl
   82ab6:	dceb      	bgt.n	82a90 <_vfiprintf_r+0x424>
   82ab8:	46b9      	mov	r9, r7
   82aba:	4422      	add	r2, r4
   82abc:	2807      	cmp	r0, #7
   82abe:	920f      	str	r2, [sp, #60]	; 0x3c
   82ac0:	f8cb 9000 	str.w	r9, [fp]
   82ac4:	f8cb 4004 	str.w	r4, [fp, #4]
   82ac8:	900e      	str	r0, [sp, #56]	; 0x38
   82aca:	f340 8292 	ble.w	82ff2 <_vfiprintf_r+0x986>
   82ace:	2a00      	cmp	r2, #0
   82ad0:	f040 840c 	bne.w	832ec <_vfiprintf_r+0xc80>
   82ad4:	9b02      	ldr	r3, [sp, #8]
   82ad6:	9a06      	ldr	r2, [sp, #24]
   82ad8:	42aa      	cmp	r2, r5
   82ada:	bfac      	ite	ge
   82adc:	189b      	addge	r3, r3, r2
   82ade:	195b      	addlt	r3, r3, r5
   82ae0:	9302      	str	r3, [sp, #8]
   82ae2:	e290      	b.n	83006 <_vfiprintf_r+0x99a>
   82ae4:	f046 0680 	orr.w	r6, r6, #128	; 0x80
   82ae8:	f898 3000 	ldrb.w	r3, [r8]
   82aec:	e625      	b.n	8273a <_vfiprintf_r+0xce>
   82aee:	9406      	str	r4, [sp, #24]
   82af0:	2900      	cmp	r1, #0
   82af2:	f040 8485 	bne.w	83400 <_vfiprintf_r+0xd94>
   82af6:	f046 0610 	orr.w	r6, r6, #16
   82afa:	06b3      	lsls	r3, r6, #26
   82afc:	f140 8304 	bpl.w	83108 <_vfiprintf_r+0xa9c>
   82b00:	9904      	ldr	r1, [sp, #16]
   82b02:	3107      	adds	r1, #7
   82b04:	f021 0107 	bic.w	r1, r1, #7
   82b08:	e9d1 2300 	ldrd	r2, r3, [r1]
   82b0c:	4614      	mov	r4, r2
   82b0e:	461d      	mov	r5, r3
   82b10:	3108      	adds	r1, #8
   82b12:	9104      	str	r1, [sp, #16]
   82b14:	2a00      	cmp	r2, #0
   82b16:	f173 0300 	sbcs.w	r3, r3, #0
   82b1a:	f2c0 837c 	blt.w	83216 <_vfiprintf_r+0xbaa>
   82b1e:	9b01      	ldr	r3, [sp, #4]
   82b20:	f89d 902f 	ldrb.w	r9, [sp, #47]	; 0x2f
   82b24:	2b00      	cmp	r3, #0
   82b26:	f2c0 830b 	blt.w	83140 <_vfiprintf_r+0xad4>
   82b2a:	ea54 0305 	orrs.w	r3, r4, r5
   82b2e:	f026 0680 	bic.w	r6, r6, #128	; 0x80
   82b32:	f000 80de 	beq.w	82cf2 <_vfiprintf_r+0x686>
   82b36:	2d00      	cmp	r5, #0
   82b38:	bf08      	it	eq
   82b3a:	2c0a      	cmpeq	r4, #10
   82b3c:	f0c0 80de 	bcc.w	82cfc <_vfiprintf_r+0x690>
   82b40:	4657      	mov	r7, sl
   82b42:	4620      	mov	r0, r4
   82b44:	4629      	mov	r1, r5
   82b46:	220a      	movs	r2, #10
   82b48:	2300      	movs	r3, #0
   82b4a:	f002 f9f3 	bl	84f34 <__aeabi_uldivmod>
   82b4e:	3230      	adds	r2, #48	; 0x30
   82b50:	f807 2d01 	strb.w	r2, [r7, #-1]!
   82b54:	4620      	mov	r0, r4
   82b56:	4629      	mov	r1, r5
   82b58:	2300      	movs	r3, #0
   82b5a:	220a      	movs	r2, #10
   82b5c:	f002 f9ea 	bl	84f34 <__aeabi_uldivmod>
   82b60:	4604      	mov	r4, r0
   82b62:	460d      	mov	r5, r1
   82b64:	ea54 0305 	orrs.w	r3, r4, r5
   82b68:	d1eb      	bne.n	82b42 <_vfiprintf_r+0x4d6>
   82b6a:	ebc7 030a 	rsb	r3, r7, sl
   82b6e:	9303      	str	r3, [sp, #12]
   82b70:	e6a2      	b.n	828b8 <_vfiprintf_r+0x24c>
   82b72:	bf00      	nop
   82b74:	00085c34 	.word	0x00085c34
   82b78:	00085c50 	.word	0x00085c50
   82b7c:	00085c10 	.word	0x00085c10
   82b80:	9406      	str	r4, [sp, #24]
   82b82:	2900      	cmp	r1, #0
   82b84:	f040 8438 	bne.w	833f8 <_vfiprintf_r+0xd8c>
   82b88:	f046 0610 	orr.w	r6, r6, #16
   82b8c:	f016 0320 	ands.w	r3, r6, #32
   82b90:	f000 82a1 	beq.w	830d6 <_vfiprintf_r+0xa6a>
   82b94:	f04f 0200 	mov.w	r2, #0
   82b98:	9b04      	ldr	r3, [sp, #16]
   82b9a:	f88d 202f 	strb.w	r2, [sp, #47]	; 0x2f
   82b9e:	3307      	adds	r3, #7
   82ba0:	f023 0307 	bic.w	r3, r3, #7
   82ba4:	f103 0208 	add.w	r2, r3, #8
   82ba8:	e9d3 4500 	ldrd	r4, r5, [r3]
   82bac:	9b01      	ldr	r3, [sp, #4]
   82bae:	9204      	str	r2, [sp, #16]
   82bb0:	2b00      	cmp	r3, #0
   82bb2:	db0a      	blt.n	82bca <_vfiprintf_r+0x55e>
   82bb4:	ea54 0305 	orrs.w	r3, r4, r5
   82bb8:	f026 0680 	bic.w	r6, r6, #128	; 0x80
   82bbc:	d105      	bne.n	82bca <_vfiprintf_r+0x55e>
   82bbe:	9b01      	ldr	r3, [sp, #4]
   82bc0:	2b00      	cmp	r3, #0
   82bc2:	f000 8427 	beq.w	83414 <_vfiprintf_r+0xda8>
   82bc6:	2400      	movs	r4, #0
   82bc8:	2500      	movs	r5, #0
   82bca:	f04f 0900 	mov.w	r9, #0
   82bce:	4657      	mov	r7, sl
   82bd0:	08e2      	lsrs	r2, r4, #3
   82bd2:	ea42 7245 	orr.w	r2, r2, r5, lsl #29
   82bd6:	08e9      	lsrs	r1, r5, #3
   82bd8:	f004 0307 	and.w	r3, r4, #7
   82bdc:	460d      	mov	r5, r1
   82bde:	4614      	mov	r4, r2
   82be0:	3330      	adds	r3, #48	; 0x30
   82be2:	ea54 0205 	orrs.w	r2, r4, r5
   82be6:	f807 3d01 	strb.w	r3, [r7, #-1]!
   82bea:	d1f1      	bne.n	82bd0 <_vfiprintf_r+0x564>
   82bec:	07f4      	lsls	r4, r6, #31
   82bee:	d5bc      	bpl.n	82b6a <_vfiprintf_r+0x4fe>
   82bf0:	2b30      	cmp	r3, #48	; 0x30
   82bf2:	d0ba      	beq.n	82b6a <_vfiprintf_r+0x4fe>
   82bf4:	2230      	movs	r2, #48	; 0x30
   82bf6:	1e7b      	subs	r3, r7, #1
   82bf8:	f807 2c01 	strb.w	r2, [r7, #-1]
   82bfc:	ebc3 020a 	rsb	r2, r3, sl
   82c00:	9203      	str	r2, [sp, #12]
   82c02:	461f      	mov	r7, r3
   82c04:	e658      	b.n	828b8 <_vfiprintf_r+0x24c>
   82c06:	f1a3 0230 	sub.w	r2, r3, #48	; 0x30
   82c0a:	2400      	movs	r4, #0
   82c0c:	f818 3b01 	ldrb.w	r3, [r8], #1
   82c10:	eb04 0484 	add.w	r4, r4, r4, lsl #2
   82c14:	eb02 0444 	add.w	r4, r2, r4, lsl #1
   82c18:	f1a3 0230 	sub.w	r2, r3, #48	; 0x30
   82c1c:	2a09      	cmp	r2, #9
   82c1e:	d9f5      	bls.n	82c0c <_vfiprintf_r+0x5a0>
   82c20:	e58d      	b.n	8273e <_vfiprintf_r+0xd2>
   82c22:	f898 3000 	ldrb.w	r3, [r8]
   82c26:	2101      	movs	r1, #1
   82c28:	202b      	movs	r0, #43	; 0x2b
   82c2a:	e586      	b.n	8273a <_vfiprintf_r+0xce>
   82c2c:	f898 3000 	ldrb.w	r3, [r8]
   82c30:	f108 0501 	add.w	r5, r8, #1
   82c34:	2b2a      	cmp	r3, #42	; 0x2a
   82c36:	f000 83cc 	beq.w	833d2 <_vfiprintf_r+0xd66>
   82c3a:	f1a3 0230 	sub.w	r2, r3, #48	; 0x30
   82c3e:	2a09      	cmp	r2, #9
   82c40:	46a8      	mov	r8, r5
   82c42:	bf98      	it	ls
   82c44:	2500      	movls	r5, #0
   82c46:	f200 83b5 	bhi.w	833b4 <_vfiprintf_r+0xd48>
   82c4a:	f818 3b01 	ldrb.w	r3, [r8], #1
   82c4e:	eb05 0585 	add.w	r5, r5, r5, lsl #2
   82c52:	eb02 0545 	add.w	r5, r2, r5, lsl #1
   82c56:	f1a3 0230 	sub.w	r2, r3, #48	; 0x30
   82c5a:	2a09      	cmp	r2, #9
   82c5c:	d9f5      	bls.n	82c4a <_vfiprintf_r+0x5de>
   82c5e:	ea45 72e5 	orr.w	r2, r5, r5, asr #31
   82c62:	9201      	str	r2, [sp, #4]
   82c64:	e56b      	b.n	8273e <_vfiprintf_r+0xd2>
   82c66:	9406      	str	r4, [sp, #24]
   82c68:	2900      	cmp	r1, #0
   82c6a:	d08f      	beq.n	82b8c <_vfiprintf_r+0x520>
   82c6c:	f88d 002f 	strb.w	r0, [sp, #47]	; 0x2f
   82c70:	e78c      	b.n	82b8c <_vfiprintf_r+0x520>
   82c72:	f04f 0300 	mov.w	r3, #0
   82c76:	9a04      	ldr	r2, [sp, #16]
   82c78:	9406      	str	r4, [sp, #24]
   82c7a:	6817      	ldr	r7, [r2, #0]
   82c7c:	f88d 302f 	strb.w	r3, [sp, #47]	; 0x2f
   82c80:	1d14      	adds	r4, r2, #4
   82c82:	9b01      	ldr	r3, [sp, #4]
   82c84:	2f00      	cmp	r7, #0
   82c86:	f000 837f 	beq.w	83388 <_vfiprintf_r+0xd1c>
   82c8a:	2b00      	cmp	r3, #0
   82c8c:	f2c0 8353 	blt.w	83336 <_vfiprintf_r+0xcca>
   82c90:	461a      	mov	r2, r3
   82c92:	2100      	movs	r1, #0
   82c94:	4638      	mov	r0, r7
   82c96:	f001 fc4d 	bl	84534 <memchr>
   82c9a:	2800      	cmp	r0, #0
   82c9c:	f000 838e 	beq.w	833bc <_vfiprintf_r+0xd50>
   82ca0:	1bc3      	subs	r3, r0, r7
   82ca2:	9303      	str	r3, [sp, #12]
   82ca4:	2300      	movs	r3, #0
   82ca6:	9404      	str	r4, [sp, #16]
   82ca8:	f89d 902f 	ldrb.w	r9, [sp, #47]	; 0x2f
   82cac:	9301      	str	r3, [sp, #4]
   82cae:	e603      	b.n	828b8 <_vfiprintf_r+0x24c>
   82cb0:	9406      	str	r4, [sp, #24]
   82cb2:	2900      	cmp	r1, #0
   82cb4:	f040 839d 	bne.w	833f2 <_vfiprintf_r+0xd86>
   82cb8:	f016 0920 	ands.w	r9, r6, #32
   82cbc:	d134      	bne.n	82d28 <_vfiprintf_r+0x6bc>
   82cbe:	f016 0310 	ands.w	r3, r6, #16
   82cc2:	d103      	bne.n	82ccc <_vfiprintf_r+0x660>
   82cc4:	f016 0940 	ands.w	r9, r6, #64	; 0x40
   82cc8:	f040 831f 	bne.w	8330a <_vfiprintf_r+0xc9e>
   82ccc:	9a04      	ldr	r2, [sp, #16]
   82cce:	2500      	movs	r5, #0
   82cd0:	4613      	mov	r3, r2
   82cd2:	6814      	ldr	r4, [r2, #0]
   82cd4:	9a01      	ldr	r2, [sp, #4]
   82cd6:	f88d 902f 	strb.w	r9, [sp, #47]	; 0x2f
   82cda:	2a00      	cmp	r2, #0
   82cdc:	f103 0304 	add.w	r3, r3, #4
   82ce0:	f2c0 8327 	blt.w	83332 <_vfiprintf_r+0xcc6>
   82ce4:	ea54 0205 	orrs.w	r2, r4, r5
   82ce8:	f026 0680 	bic.w	r6, r6, #128	; 0x80
   82cec:	9304      	str	r3, [sp, #16]
   82cee:	f47f af22 	bne.w	82b36 <_vfiprintf_r+0x4ca>
   82cf2:	9b01      	ldr	r3, [sp, #4]
   82cf4:	2b00      	cmp	r3, #0
   82cf6:	f43f addb 	beq.w	828b0 <_vfiprintf_r+0x244>
   82cfa:	2400      	movs	r4, #0
   82cfc:	af2a      	add	r7, sp, #168	; 0xa8
   82cfe:	3430      	adds	r4, #48	; 0x30
   82d00:	f807 4d41 	strb.w	r4, [r7, #-65]!
   82d04:	ebc7 030a 	rsb	r3, r7, sl
   82d08:	9303      	str	r3, [sp, #12]
   82d0a:	e5d5      	b.n	828b8 <_vfiprintf_r+0x24c>
   82d0c:	f046 0620 	orr.w	r6, r6, #32
   82d10:	f898 3000 	ldrb.w	r3, [r8]
   82d14:	e511      	b.n	8273a <_vfiprintf_r+0xce>
   82d16:	9406      	str	r4, [sp, #24]
   82d18:	2900      	cmp	r1, #0
   82d1a:	f040 8375 	bne.w	83408 <_vfiprintf_r+0xd9c>
   82d1e:	f046 0610 	orr.w	r6, r6, #16
   82d22:	f016 0920 	ands.w	r9, r6, #32
   82d26:	d0ca      	beq.n	82cbe <_vfiprintf_r+0x652>
   82d28:	f04f 0200 	mov.w	r2, #0
   82d2c:	9b04      	ldr	r3, [sp, #16]
   82d2e:	f88d 202f 	strb.w	r2, [sp, #47]	; 0x2f
   82d32:	3307      	adds	r3, #7
   82d34:	f023 0307 	bic.w	r3, r3, #7
   82d38:	f103 0208 	add.w	r2, r3, #8
   82d3c:	e9d3 4500 	ldrd	r4, r5, [r3]
   82d40:	9b01      	ldr	r3, [sp, #4]
   82d42:	9204      	str	r2, [sp, #16]
   82d44:	2b00      	cmp	r3, #0
   82d46:	f2c0 81f9 	blt.w	8313c <_vfiprintf_r+0xad0>
   82d4a:	ea54 0305 	orrs.w	r3, r4, r5
   82d4e:	f026 0680 	bic.w	r6, r6, #128	; 0x80
   82d52:	f04f 0900 	mov.w	r9, #0
   82d56:	f47f aeee 	bne.w	82b36 <_vfiprintf_r+0x4ca>
   82d5a:	e7ca      	b.n	82cf2 <_vfiprintf_r+0x686>
   82d5c:	9406      	str	r4, [sp, #24]
   82d5e:	2900      	cmp	r1, #0
   82d60:	f040 8355 	bne.w	8340e <_vfiprintf_r+0xda2>
   82d64:	06b2      	lsls	r2, r6, #26
   82d66:	48b2      	ldr	r0, [pc, #712]	; (83030 <_vfiprintf_r+0x9c4>)
   82d68:	d541      	bpl.n	82dee <_vfiprintf_r+0x782>
   82d6a:	9a04      	ldr	r2, [sp, #16]
   82d6c:	3207      	adds	r2, #7
   82d6e:	f022 0207 	bic.w	r2, r2, #7
   82d72:	f102 0108 	add.w	r1, r2, #8
   82d76:	9104      	str	r1, [sp, #16]
   82d78:	e9d2 4500 	ldrd	r4, r5, [r2]
   82d7c:	f016 0901 	ands.w	r9, r6, #1
   82d80:	f000 817e 	beq.w	83080 <_vfiprintf_r+0xa14>
   82d84:	ea54 0205 	orrs.w	r2, r4, r5
   82d88:	f040 822b 	bne.w	831e2 <_vfiprintf_r+0xb76>
   82d8c:	f04f 0300 	mov.w	r3, #0
   82d90:	f88d 302f 	strb.w	r3, [sp, #47]	; 0x2f
   82d94:	9b01      	ldr	r3, [sp, #4]
   82d96:	2b00      	cmp	r3, #0
   82d98:	f2c0 82f3 	blt.w	83382 <_vfiprintf_r+0xd16>
   82d9c:	f026 0680 	bic.w	r6, r6, #128	; 0x80
   82da0:	e581      	b.n	828a6 <_vfiprintf_r+0x23a>
   82da2:	9a04      	ldr	r2, [sp, #16]
   82da4:	f04f 0100 	mov.w	r1, #0
   82da8:	6813      	ldr	r3, [r2, #0]
   82daa:	2501      	movs	r5, #1
   82dac:	f88d 3040 	strb.w	r3, [sp, #64]	; 0x40
   82db0:	4613      	mov	r3, r2
   82db2:	3304      	adds	r3, #4
   82db4:	9406      	str	r4, [sp, #24]
   82db6:	f88d 102f 	strb.w	r1, [sp, #47]	; 0x2f
   82dba:	9304      	str	r3, [sp, #16]
   82dbc:	9503      	str	r5, [sp, #12]
   82dbe:	af10      	add	r7, sp, #64	; 0x40
   82dc0:	2300      	movs	r3, #0
   82dc2:	9301      	str	r3, [sp, #4]
   82dc4:	e582      	b.n	828cc <_vfiprintf_r+0x260>
   82dc6:	f898 3000 	ldrb.w	r3, [r8]
   82dca:	2800      	cmp	r0, #0
   82dcc:	f47f acb5 	bne.w	8273a <_vfiprintf_r+0xce>
   82dd0:	2101      	movs	r1, #1
   82dd2:	2020      	movs	r0, #32
   82dd4:	e4b1      	b.n	8273a <_vfiprintf_r+0xce>
   82dd6:	f046 0601 	orr.w	r6, r6, #1
   82dda:	f898 3000 	ldrb.w	r3, [r8]
   82dde:	e4ac      	b.n	8273a <_vfiprintf_r+0xce>
   82de0:	9406      	str	r4, [sp, #24]
   82de2:	2900      	cmp	r1, #0
   82de4:	f040 832a 	bne.w	8343c <_vfiprintf_r+0xdd0>
   82de8:	06b2      	lsls	r2, r6, #26
   82dea:	4892      	ldr	r0, [pc, #584]	; (83034 <_vfiprintf_r+0x9c8>)
   82dec:	d4bd      	bmi.n	82d6a <_vfiprintf_r+0x6fe>
   82dee:	9904      	ldr	r1, [sp, #16]
   82df0:	06f7      	lsls	r7, r6, #27
   82df2:	460a      	mov	r2, r1
   82df4:	f100 819d 	bmi.w	83132 <_vfiprintf_r+0xac6>
   82df8:	0675      	lsls	r5, r6, #25
   82dfa:	f140 819a 	bpl.w	83132 <_vfiprintf_r+0xac6>
   82dfe:	3204      	adds	r2, #4
   82e00:	880c      	ldrh	r4, [r1, #0]
   82e02:	9204      	str	r2, [sp, #16]
   82e04:	2500      	movs	r5, #0
   82e06:	e7b9      	b.n	82d7c <_vfiprintf_r+0x710>
   82e08:	f046 0640 	orr.w	r6, r6, #64	; 0x40
   82e0c:	f898 3000 	ldrb.w	r3, [r8]
   82e10:	e493      	b.n	8273a <_vfiprintf_r+0xce>
   82e12:	f898 3000 	ldrb.w	r3, [r8]
   82e16:	2b6c      	cmp	r3, #108	; 0x6c
   82e18:	bf03      	ittte	eq
   82e1a:	f898 3001 	ldrbeq.w	r3, [r8, #1]
   82e1e:	f046 0620 	orreq.w	r6, r6, #32
   82e22:	f108 0801 	addeq.w	r8, r8, #1
   82e26:	f046 0610 	orrne.w	r6, r6, #16
   82e2a:	e486      	b.n	8273a <_vfiprintf_r+0xce>
   82e2c:	2900      	cmp	r1, #0
   82e2e:	f040 8302 	bne.w	83436 <_vfiprintf_r+0xdca>
   82e32:	06b4      	lsls	r4, r6, #26
   82e34:	f140 8220 	bpl.w	83278 <_vfiprintf_r+0xc0c>
   82e38:	9a04      	ldr	r2, [sp, #16]
   82e3a:	4613      	mov	r3, r2
   82e3c:	3304      	adds	r3, #4
   82e3e:	9304      	str	r3, [sp, #16]
   82e40:	9b02      	ldr	r3, [sp, #8]
   82e42:	6811      	ldr	r1, [r2, #0]
   82e44:	17dd      	asrs	r5, r3, #31
   82e46:	461a      	mov	r2, r3
   82e48:	462b      	mov	r3, r5
   82e4a:	e9c1 2300 	strd	r2, r3, [r1]
   82e4e:	e43e      	b.n	826ce <_vfiprintf_r+0x62>
   82e50:	9406      	str	r4, [sp, #24]
   82e52:	2900      	cmp	r1, #0
   82e54:	f43f ae51 	beq.w	82afa <_vfiprintf_r+0x48e>
   82e58:	f88d 002f 	strb.w	r0, [sp, #47]	; 0x2f
   82e5c:	e64d      	b.n	82afa <_vfiprintf_r+0x48e>
   82e5e:	9406      	str	r4, [sp, #24]
   82e60:	2900      	cmp	r1, #0
   82e62:	f040 82e5 	bne.w	83430 <_vfiprintf_r+0xdc4>
   82e66:	2b00      	cmp	r3, #0
   82e68:	f000 8094 	beq.w	82f94 <_vfiprintf_r+0x928>
   82e6c:	f88d 3040 	strb.w	r3, [sp, #64]	; 0x40
   82e70:	f04f 0300 	mov.w	r3, #0
   82e74:	2501      	movs	r5, #1
   82e76:	f88d 302f 	strb.w	r3, [sp, #47]	; 0x2f
   82e7a:	9503      	str	r5, [sp, #12]
   82e7c:	af10      	add	r7, sp, #64	; 0x40
   82e7e:	e79f      	b.n	82dc0 <_vfiprintf_r+0x754>
   82e80:	aa0d      	add	r2, sp, #52	; 0x34
   82e82:	9900      	ldr	r1, [sp, #0]
   82e84:	4648      	mov	r0, r9
   82e86:	9309      	str	r3, [sp, #36]	; 0x24
   82e88:	f7ff fbb4 	bl	825f4 <__sprint_r.part.0>
   82e8c:	2800      	cmp	r0, #0
   82e8e:	f040 8088 	bne.w	82fa2 <_vfiprintf_r+0x936>
   82e92:	980e      	ldr	r0, [sp, #56]	; 0x38
   82e94:	46d4      	mov	ip, sl
   82e96:	9a0f      	ldr	r2, [sp, #60]	; 0x3c
   82e98:	f100 0e01 	add.w	lr, r0, #1
   82e9c:	9b09      	ldr	r3, [sp, #36]	; 0x24
   82e9e:	e53a      	b.n	82916 <_vfiprintf_r+0x2aa>
   82ea0:	aa0d      	add	r2, sp, #52	; 0x34
   82ea2:	9900      	ldr	r1, [sp, #0]
   82ea4:	9805      	ldr	r0, [sp, #20]
   82ea6:	f7ff fba5 	bl	825f4 <__sprint_r.part.0>
   82eaa:	2800      	cmp	r0, #0
   82eac:	d179      	bne.n	82fa2 <_vfiprintf_r+0x936>
   82eae:	46d3      	mov	fp, sl
   82eb0:	980e      	ldr	r0, [sp, #56]	; 0x38
   82eb2:	f89d 302f 	ldrb.w	r3, [sp, #47]	; 0x2f
   82eb6:	9a0f      	ldr	r2, [sp, #60]	; 0x3c
   82eb8:	f100 0e01 	add.w	lr, r0, #1
   82ebc:	2b00      	cmp	r3, #0
   82ebe:	f43f ad59 	beq.w	82974 <_vfiprintf_r+0x308>
   82ec2:	3201      	adds	r2, #1
   82ec4:	f10d 012f 	add.w	r1, sp, #47	; 0x2f
   82ec8:	2301      	movs	r3, #1
   82eca:	f1be 0f07 	cmp.w	lr, #7
   82ece:	920f      	str	r2, [sp, #60]	; 0x3c
   82ed0:	f8cd e038 	str.w	lr, [sp, #56]	; 0x38
   82ed4:	e88b 000a 	stmia.w	fp, {r1, r3}
   82ed8:	f340 80c0 	ble.w	8305c <_vfiprintf_r+0x9f0>
   82edc:	2a00      	cmp	r2, #0
   82ede:	f040 814d 	bne.w	8317c <_vfiprintf_r+0xb10>
   82ee2:	9907      	ldr	r1, [sp, #28]
   82ee4:	2900      	cmp	r1, #0
   82ee6:	f040 80bf 	bne.w	83068 <_vfiprintf_r+0x9fc>
   82eea:	469e      	mov	lr, r3
   82eec:	4610      	mov	r0, r2
   82eee:	46d3      	mov	fp, sl
   82ef0:	9b08      	ldr	r3, [sp, #32]
   82ef2:	2b80      	cmp	r3, #128	; 0x80
   82ef4:	f43f ad59 	beq.w	829aa <_vfiprintf_r+0x33e>
   82ef8:	9b01      	ldr	r3, [sp, #4]
   82efa:	9903      	ldr	r1, [sp, #12]
   82efc:	1a5c      	subs	r4, r3, r1
   82efe:	2c00      	cmp	r4, #0
   82f00:	f77f ad9c 	ble.w	82a3c <_vfiprintf_r+0x3d0>
   82f04:	2c10      	cmp	r4, #16
   82f06:	f8df 9130 	ldr.w	r9, [pc, #304]	; 83038 <_vfiprintf_r+0x9cc>
   82f0a:	dd25      	ble.n	82f58 <_vfiprintf_r+0x8ec>
   82f0c:	46dc      	mov	ip, fp
   82f0e:	2310      	movs	r3, #16
   82f10:	46c3      	mov	fp, r8
   82f12:	46a8      	mov	r8, r5
   82f14:	464d      	mov	r5, r9
   82f16:	f8dd 9014 	ldr.w	r9, [sp, #20]
   82f1a:	e007      	b.n	82f2c <_vfiprintf_r+0x8c0>
   82f1c:	f100 0e02 	add.w	lr, r0, #2
   82f20:	4608      	mov	r0, r1
   82f22:	f10c 0c08 	add.w	ip, ip, #8
   82f26:	3c10      	subs	r4, #16
   82f28:	2c10      	cmp	r4, #16
   82f2a:	dd11      	ble.n	82f50 <_vfiprintf_r+0x8e4>
   82f2c:	1c41      	adds	r1, r0, #1
   82f2e:	3210      	adds	r2, #16
   82f30:	2907      	cmp	r1, #7
   82f32:	920f      	str	r2, [sp, #60]	; 0x3c
   82f34:	f8cc 5000 	str.w	r5, [ip]
   82f38:	f8cc 3004 	str.w	r3, [ip, #4]
   82f3c:	910e      	str	r1, [sp, #56]	; 0x38
   82f3e:	dded      	ble.n	82f1c <_vfiprintf_r+0x8b0>
   82f40:	b9d2      	cbnz	r2, 82f78 <_vfiprintf_r+0x90c>
   82f42:	3c10      	subs	r4, #16
   82f44:	2c10      	cmp	r4, #16
   82f46:	f04f 0e01 	mov.w	lr, #1
   82f4a:	4610      	mov	r0, r2
   82f4c:	46d4      	mov	ip, sl
   82f4e:	dced      	bgt.n	82f2c <_vfiprintf_r+0x8c0>
   82f50:	46a9      	mov	r9, r5
   82f52:	4645      	mov	r5, r8
   82f54:	46d8      	mov	r8, fp
   82f56:	46e3      	mov	fp, ip
   82f58:	4422      	add	r2, r4
   82f5a:	f1be 0f07 	cmp.w	lr, #7
   82f5e:	920f      	str	r2, [sp, #60]	; 0x3c
   82f60:	f8cb 9000 	str.w	r9, [fp]
   82f64:	f8cb 4004 	str.w	r4, [fp, #4]
   82f68:	f8cd e038 	str.w	lr, [sp, #56]	; 0x38
   82f6c:	dc2e      	bgt.n	82fcc <_vfiprintf_r+0x960>
   82f6e:	f10b 0b08 	add.w	fp, fp, #8
   82f72:	f10e 0e01 	add.w	lr, lr, #1
   82f76:	e561      	b.n	82a3c <_vfiprintf_r+0x3d0>
   82f78:	aa0d      	add	r2, sp, #52	; 0x34
   82f7a:	9900      	ldr	r1, [sp, #0]
   82f7c:	4648      	mov	r0, r9
   82f7e:	9301      	str	r3, [sp, #4]
   82f80:	f7ff fb38 	bl	825f4 <__sprint_r.part.0>
   82f84:	b968      	cbnz	r0, 82fa2 <_vfiprintf_r+0x936>
   82f86:	980e      	ldr	r0, [sp, #56]	; 0x38
   82f88:	46d4      	mov	ip, sl
   82f8a:	9a0f      	ldr	r2, [sp, #60]	; 0x3c
   82f8c:	f100 0e01 	add.w	lr, r0, #1
   82f90:	9b01      	ldr	r3, [sp, #4]
   82f92:	e7c8      	b.n	82f26 <_vfiprintf_r+0x8ba>
   82f94:	9b0f      	ldr	r3, [sp, #60]	; 0x3c
   82f96:	b123      	cbz	r3, 82fa2 <_vfiprintf_r+0x936>
   82f98:	9805      	ldr	r0, [sp, #20]
   82f9a:	aa0d      	add	r2, sp, #52	; 0x34
   82f9c:	9900      	ldr	r1, [sp, #0]
   82f9e:	f7ff fb29 	bl	825f4 <__sprint_r.part.0>
   82fa2:	9b00      	ldr	r3, [sp, #0]
   82fa4:	899b      	ldrh	r3, [r3, #12]
   82fa6:	065a      	lsls	r2, r3, #25
   82fa8:	f100 817b 	bmi.w	832a2 <_vfiprintf_r+0xc36>
   82fac:	9802      	ldr	r0, [sp, #8]
   82fae:	b02b      	add	sp, #172	; 0xac
   82fb0:	e8bd 8ff0 	ldmia.w	sp!, {r4, r5, r6, r7, r8, r9, sl, fp, pc}
   82fb4:	aa0d      	add	r2, sp, #52	; 0x34
   82fb6:	9900      	ldr	r1, [sp, #0]
   82fb8:	4648      	mov	r0, r9
   82fba:	f7ff fb1b 	bl	825f4 <__sprint_r.part.0>
   82fbe:	2800      	cmp	r0, #0
   82fc0:	d1ef      	bne.n	82fa2 <_vfiprintf_r+0x936>
   82fc2:	990e      	ldr	r1, [sp, #56]	; 0x38
   82fc4:	46d3      	mov	fp, sl
   82fc6:	9a0f      	ldr	r2, [sp, #60]	; 0x3c
   82fc8:	1c48      	adds	r0, r1, #1
   82fca:	e55e      	b.n	82a8a <_vfiprintf_r+0x41e>
   82fcc:	2a00      	cmp	r2, #0
   82fce:	f040 80fa 	bne.w	831c6 <_vfiprintf_r+0xb5a>
   82fd2:	46d3      	mov	fp, sl
   82fd4:	9a03      	ldr	r2, [sp, #12]
   82fd6:	2301      	movs	r3, #1
   82fd8:	921b      	str	r2, [sp, #108]	; 0x6c
   82fda:	920f      	str	r2, [sp, #60]	; 0x3c
   82fdc:	971a      	str	r7, [sp, #104]	; 0x68
   82fde:	930e      	str	r3, [sp, #56]	; 0x38
   82fe0:	f10b 0b08 	add.w	fp, fp, #8
   82fe4:	0771      	lsls	r1, r6, #29
   82fe6:	d504      	bpl.n	82ff2 <_vfiprintf_r+0x986>
   82fe8:	9b06      	ldr	r3, [sp, #24]
   82fea:	1b5c      	subs	r4, r3, r5
   82fec:	2c00      	cmp	r4, #0
   82fee:	f73f ad3d 	bgt.w	82a6c <_vfiprintf_r+0x400>
   82ff2:	9b02      	ldr	r3, [sp, #8]
   82ff4:	9906      	ldr	r1, [sp, #24]
   82ff6:	42a9      	cmp	r1, r5
   82ff8:	bfac      	ite	ge
   82ffa:	185b      	addge	r3, r3, r1
   82ffc:	195b      	addlt	r3, r3, r5
   82ffe:	9302      	str	r3, [sp, #8]
   83000:	2a00      	cmp	r2, #0
   83002:	f040 80ad 	bne.w	83160 <_vfiprintf_r+0xaf4>
   83006:	2300      	movs	r3, #0
   83008:	930e      	str	r3, [sp, #56]	; 0x38
   8300a:	46d3      	mov	fp, sl
   8300c:	f7ff bb5f 	b.w	826ce <_vfiprintf_r+0x62>
   83010:	aa0d      	add	r2, sp, #52	; 0x34
   83012:	9900      	ldr	r1, [sp, #0]
   83014:	4648      	mov	r0, r9
   83016:	9307      	str	r3, [sp, #28]
   83018:	f7ff faec 	bl	825f4 <__sprint_r.part.0>
   8301c:	2800      	cmp	r0, #0
   8301e:	d1c0      	bne.n	82fa2 <_vfiprintf_r+0x936>
   83020:	980e      	ldr	r0, [sp, #56]	; 0x38
   83022:	46d6      	mov	lr, sl
   83024:	9a0f      	ldr	r2, [sp, #60]	; 0x3c
   83026:	f100 0c01 	add.w	ip, r0, #1
   8302a:	9b07      	ldr	r3, [sp, #28]
   8302c:	e4d4      	b.n	829d8 <_vfiprintf_r+0x36c>
   8302e:	bf00      	nop
   83030:	00085c20 	.word	0x00085c20
   83034:	00085c34 	.word	0x00085c34
   83038:	00085c10 	.word	0x00085c10
   8303c:	2a00      	cmp	r2, #0
   8303e:	f47f af2f 	bne.w	82ea0 <_vfiprintf_r+0x834>
   83042:	f89d 302f 	ldrb.w	r3, [sp, #47]	; 0x2f
   83046:	2b00      	cmp	r3, #0
   83048:	f000 80f3 	beq.w	83232 <_vfiprintf_r+0xbc6>
   8304c:	2301      	movs	r3, #1
   8304e:	461a      	mov	r2, r3
   83050:	469e      	mov	lr, r3
   83052:	46d3      	mov	fp, sl
   83054:	f10d 012f 	add.w	r1, sp, #47	; 0x2f
   83058:	931b      	str	r3, [sp, #108]	; 0x6c
   8305a:	911a      	str	r1, [sp, #104]	; 0x68
   8305c:	4670      	mov	r0, lr
   8305e:	f10b 0b08 	add.w	fp, fp, #8
   83062:	f10e 0e01 	add.w	lr, lr, #1
   83066:	e485      	b.n	82974 <_vfiprintf_r+0x308>
   83068:	469e      	mov	lr, r3
   8306a:	46d3      	mov	fp, sl
   8306c:	a90c      	add	r1, sp, #48	; 0x30
   8306e:	2202      	movs	r2, #2
   83070:	911a      	str	r1, [sp, #104]	; 0x68
   83072:	921b      	str	r2, [sp, #108]	; 0x6c
   83074:	4670      	mov	r0, lr
   83076:	f10b 0b08 	add.w	fp, fp, #8
   8307a:	f10e 0e01 	add.w	lr, lr, #1
   8307e:	e737      	b.n	82ef0 <_vfiprintf_r+0x884>
   83080:	9b01      	ldr	r3, [sp, #4]
   83082:	f88d 902f 	strb.w	r9, [sp, #47]	; 0x2f
   83086:	2b00      	cmp	r3, #0
   83088:	f2c0 811b 	blt.w	832c2 <_vfiprintf_r+0xc56>
   8308c:	ea54 0305 	orrs.w	r3, r4, r5
   83090:	f026 0680 	bic.w	r6, r6, #128	; 0x80
   83094:	f43f ac07 	beq.w	828a6 <_vfiprintf_r+0x23a>
   83098:	4657      	mov	r7, sl
   8309a:	0923      	lsrs	r3, r4, #4
   8309c:	ea43 7305 	orr.w	r3, r3, r5, lsl #28
   830a0:	0929      	lsrs	r1, r5, #4
   830a2:	f004 020f 	and.w	r2, r4, #15
   830a6:	460d      	mov	r5, r1
   830a8:	461c      	mov	r4, r3
   830aa:	5c83      	ldrb	r3, [r0, r2]
   830ac:	f807 3d01 	strb.w	r3, [r7, #-1]!
   830b0:	ea54 0305 	orrs.w	r3, r4, r5
   830b4:	d1f1      	bne.n	8309a <_vfiprintf_r+0xa2e>
   830b6:	ebc7 030a 	rsb	r3, r7, sl
   830ba:	9303      	str	r3, [sp, #12]
   830bc:	f7ff bbfc 	b.w	828b8 <_vfiprintf_r+0x24c>
   830c0:	aa0d      	add	r2, sp, #52	; 0x34
   830c2:	9900      	ldr	r1, [sp, #0]
   830c4:	9805      	ldr	r0, [sp, #20]
   830c6:	f7ff fa95 	bl	825f4 <__sprint_r.part.0>
   830ca:	2800      	cmp	r0, #0
   830cc:	f47f af69 	bne.w	82fa2 <_vfiprintf_r+0x936>
   830d0:	46d3      	mov	fp, sl
   830d2:	9a0f      	ldr	r2, [sp, #60]	; 0x3c
   830d4:	e786      	b.n	82fe4 <_vfiprintf_r+0x978>
   830d6:	f016 0210 	ands.w	r2, r6, #16
   830da:	f000 80b5 	beq.w	83248 <_vfiprintf_r+0xbdc>
   830de:	9904      	ldr	r1, [sp, #16]
   830e0:	f88d 302f 	strb.w	r3, [sp, #47]	; 0x2f
   830e4:	460a      	mov	r2, r1
   830e6:	680c      	ldr	r4, [r1, #0]
   830e8:	9901      	ldr	r1, [sp, #4]
   830ea:	3204      	adds	r2, #4
   830ec:	2900      	cmp	r1, #0
   830ee:	f04f 0500 	mov.w	r5, #0
   830f2:	f2c0 8152 	blt.w	8339a <_vfiprintf_r+0xd2e>
   830f6:	ea54 0105 	orrs.w	r1, r4, r5
   830fa:	f026 0680 	bic.w	r6, r6, #128	; 0x80
   830fe:	9204      	str	r2, [sp, #16]
   83100:	f43f ad5d 	beq.w	82bbe <_vfiprintf_r+0x552>
   83104:	4699      	mov	r9, r3
   83106:	e562      	b.n	82bce <_vfiprintf_r+0x562>
   83108:	9a04      	ldr	r2, [sp, #16]
   8310a:	06f7      	lsls	r7, r6, #27
   8310c:	4613      	mov	r3, r2
   8310e:	d409      	bmi.n	83124 <_vfiprintf_r+0xab8>
   83110:	0675      	lsls	r5, r6, #25
   83112:	d507      	bpl.n	83124 <_vfiprintf_r+0xab8>
   83114:	f9b2 4000 	ldrsh.w	r4, [r2]
   83118:	3304      	adds	r3, #4
   8311a:	17e5      	asrs	r5, r4, #31
   8311c:	9304      	str	r3, [sp, #16]
   8311e:	4622      	mov	r2, r4
   83120:	462b      	mov	r3, r5
   83122:	e4f7      	b.n	82b14 <_vfiprintf_r+0x4a8>
   83124:	681c      	ldr	r4, [r3, #0]
   83126:	3304      	adds	r3, #4
   83128:	17e5      	asrs	r5, r4, #31
   8312a:	9304      	str	r3, [sp, #16]
   8312c:	4622      	mov	r2, r4
   8312e:	462b      	mov	r3, r5
   83130:	e4f0      	b.n	82b14 <_vfiprintf_r+0x4a8>
   83132:	6814      	ldr	r4, [r2, #0]
   83134:	3204      	adds	r2, #4
   83136:	9204      	str	r2, [sp, #16]
   83138:	2500      	movs	r5, #0
   8313a:	e61f      	b.n	82d7c <_vfiprintf_r+0x710>
   8313c:	f04f 0900 	mov.w	r9, #0
   83140:	ea54 0305 	orrs.w	r3, r4, r5
   83144:	f47f acf7 	bne.w	82b36 <_vfiprintf_r+0x4ca>
   83148:	e5d8      	b.n	82cfc <_vfiprintf_r+0x690>
   8314a:	aa0d      	add	r2, sp, #52	; 0x34
   8314c:	9900      	ldr	r1, [sp, #0]
   8314e:	9805      	ldr	r0, [sp, #20]
   83150:	f7ff fa50 	bl	825f4 <__sprint_r.part.0>
   83154:	2800      	cmp	r0, #0
   83156:	f47f af24 	bne.w	82fa2 <_vfiprintf_r+0x936>
   8315a:	46d3      	mov	fp, sl
   8315c:	f7ff bb51 	b.w	82802 <_vfiprintf_r+0x196>
   83160:	aa0d      	add	r2, sp, #52	; 0x34
   83162:	9900      	ldr	r1, [sp, #0]
   83164:	9805      	ldr	r0, [sp, #20]
   83166:	f7ff fa45 	bl	825f4 <__sprint_r.part.0>
   8316a:	2800      	cmp	r0, #0
   8316c:	f43f af4b 	beq.w	83006 <_vfiprintf_r+0x99a>
   83170:	e717      	b.n	82fa2 <_vfiprintf_r+0x936>
   83172:	2400      	movs	r4, #0
   83174:	2500      	movs	r5, #0
   83176:	f04f 0900 	mov.w	r9, #0
   8317a:	e78d      	b.n	83098 <_vfiprintf_r+0xa2c>
   8317c:	aa0d      	add	r2, sp, #52	; 0x34
   8317e:	9900      	ldr	r1, [sp, #0]
   83180:	9805      	ldr	r0, [sp, #20]
   83182:	f7ff fa37 	bl	825f4 <__sprint_r.part.0>
   83186:	2800      	cmp	r0, #0
   83188:	f47f af0b 	bne.w	82fa2 <_vfiprintf_r+0x936>
   8318c:	980e      	ldr	r0, [sp, #56]	; 0x38
   8318e:	46d3      	mov	fp, sl
   83190:	9a0f      	ldr	r2, [sp, #60]	; 0x3c
   83192:	f100 0e01 	add.w	lr, r0, #1
   83196:	f7ff bbed 	b.w	82974 <_vfiprintf_r+0x308>
   8319a:	aa0d      	add	r2, sp, #52	; 0x34
   8319c:	9900      	ldr	r1, [sp, #0]
   8319e:	9805      	ldr	r0, [sp, #20]
   831a0:	f7ff fa28 	bl	825f4 <__sprint_r.part.0>
   831a4:	2800      	cmp	r0, #0
   831a6:	f47f aefc 	bne.w	82fa2 <_vfiprintf_r+0x936>
   831aa:	980e      	ldr	r0, [sp, #56]	; 0x38
   831ac:	46d3      	mov	fp, sl
   831ae:	9a0f      	ldr	r2, [sp, #60]	; 0x3c
   831b0:	f100 0e01 	add.w	lr, r0, #1
   831b4:	e69c      	b.n	82ef0 <_vfiprintf_r+0x884>
   831b6:	2a00      	cmp	r2, #0
   831b8:	f040 80c8 	bne.w	8334c <_vfiprintf_r+0xce0>
   831bc:	f04f 0e01 	mov.w	lr, #1
   831c0:	4610      	mov	r0, r2
   831c2:	46d3      	mov	fp, sl
   831c4:	e698      	b.n	82ef8 <_vfiprintf_r+0x88c>
   831c6:	aa0d      	add	r2, sp, #52	; 0x34
   831c8:	9900      	ldr	r1, [sp, #0]
   831ca:	9805      	ldr	r0, [sp, #20]
   831cc:	f7ff fa12 	bl	825f4 <__sprint_r.part.0>
   831d0:	2800      	cmp	r0, #0
   831d2:	f47f aee6 	bne.w	82fa2 <_vfiprintf_r+0x936>
   831d6:	9b0e      	ldr	r3, [sp, #56]	; 0x38
   831d8:	46d3      	mov	fp, sl
   831da:	9a0f      	ldr	r2, [sp, #60]	; 0x3c
   831dc:	f103 0e01 	add.w	lr, r3, #1
   831e0:	e42c      	b.n	82a3c <_vfiprintf_r+0x3d0>
   831e2:	f88d 3031 	strb.w	r3, [sp, #49]	; 0x31
   831e6:	f04f 0300 	mov.w	r3, #0
   831ea:	2230      	movs	r2, #48	; 0x30
   831ec:	f88d 2030 	strb.w	r2, [sp, #48]	; 0x30
   831f0:	9a01      	ldr	r2, [sp, #4]
   831f2:	f88d 302f 	strb.w	r3, [sp, #47]	; 0x2f
   831f6:	2a00      	cmp	r2, #0
   831f8:	f046 0302 	orr.w	r3, r6, #2
   831fc:	f2c0 80bb 	blt.w	83376 <_vfiprintf_r+0xd0a>
   83200:	f026 0680 	bic.w	r6, r6, #128	; 0x80
   83204:	f046 0602 	orr.w	r6, r6, #2
   83208:	f04f 0900 	mov.w	r9, #0
   8320c:	e744      	b.n	83098 <_vfiprintf_r+0xa2c>
   8320e:	f04f 0900 	mov.w	r9, #0
   83212:	488c      	ldr	r0, [pc, #560]	; (83444 <_vfiprintf_r+0xdd8>)
   83214:	e740      	b.n	83098 <_vfiprintf_r+0xa2c>
   83216:	9b01      	ldr	r3, [sp, #4]
   83218:	4264      	negs	r4, r4
   8321a:	f04f 092d 	mov.w	r9, #45	; 0x2d
   8321e:	eb65 0545 	sbc.w	r5, r5, r5, lsl #1
   83222:	2b00      	cmp	r3, #0
   83224:	f88d 902f 	strb.w	r9, [sp, #47]	; 0x2f
   83228:	f6ff ac85 	blt.w	82b36 <_vfiprintf_r+0x4ca>
   8322c:	f026 0680 	bic.w	r6, r6, #128	; 0x80
   83230:	e481      	b.n	82b36 <_vfiprintf_r+0x4ca>
   83232:	9b07      	ldr	r3, [sp, #28]
   83234:	2b00      	cmp	r3, #0
   83236:	d063      	beq.n	83300 <_vfiprintf_r+0xc94>
   83238:	ab0c      	add	r3, sp, #48	; 0x30
   8323a:	2202      	movs	r2, #2
   8323c:	931a      	str	r3, [sp, #104]	; 0x68
   8323e:	921b      	str	r2, [sp, #108]	; 0x6c
   83240:	f04f 0e01 	mov.w	lr, #1
   83244:	46d3      	mov	fp, sl
   83246:	e715      	b.n	83074 <_vfiprintf_r+0xa08>
   83248:	f016 0940 	ands.w	r9, r6, #64	; 0x40
   8324c:	d03b      	beq.n	832c6 <_vfiprintf_r+0xc5a>
   8324e:	9904      	ldr	r1, [sp, #16]
   83250:	f88d 202f 	strb.w	r2, [sp, #47]	; 0x2f
   83254:	460b      	mov	r3, r1
   83256:	880c      	ldrh	r4, [r1, #0]
   83258:	9901      	ldr	r1, [sp, #4]
   8325a:	3304      	adds	r3, #4
   8325c:	2900      	cmp	r1, #0
   8325e:	f04f 0500 	mov.w	r5, #0
   83262:	f2c0 808c 	blt.w	8337e <_vfiprintf_r+0xd12>
   83266:	ea54 0105 	orrs.w	r1, r4, r5
   8326a:	f026 0680 	bic.w	r6, r6, #128	; 0x80
   8326e:	9304      	str	r3, [sp, #16]
   83270:	f43f aca5 	beq.w	82bbe <_vfiprintf_r+0x552>
   83274:	4691      	mov	r9, r2
   83276:	e4aa      	b.n	82bce <_vfiprintf_r+0x562>
   83278:	06f0      	lsls	r0, r6, #27
   8327a:	d40a      	bmi.n	83292 <_vfiprintf_r+0xc26>
   8327c:	0671      	lsls	r1, r6, #25
   8327e:	d508      	bpl.n	83292 <_vfiprintf_r+0xc26>
   83280:	9a04      	ldr	r2, [sp, #16]
   83282:	6813      	ldr	r3, [r2, #0]
   83284:	3204      	adds	r2, #4
   83286:	9204      	str	r2, [sp, #16]
   83288:	f8bd 2008 	ldrh.w	r2, [sp, #8]
   8328c:	801a      	strh	r2, [r3, #0]
   8328e:	f7ff ba1e 	b.w	826ce <_vfiprintf_r+0x62>
   83292:	9a04      	ldr	r2, [sp, #16]
   83294:	6813      	ldr	r3, [r2, #0]
   83296:	3204      	adds	r2, #4
   83298:	9204      	str	r2, [sp, #16]
   8329a:	9a02      	ldr	r2, [sp, #8]
   8329c:	601a      	str	r2, [r3, #0]
   8329e:	f7ff ba16 	b.w	826ce <_vfiprintf_r+0x62>
   832a2:	f04f 30ff 	mov.w	r0, #4294967295
   832a6:	f7ff bac9 	b.w	8283c <_vfiprintf_r+0x1d0>
   832aa:	4616      	mov	r6, r2
   832ac:	4865      	ldr	r0, [pc, #404]	; (83444 <_vfiprintf_r+0xdd8>)
   832ae:	ea54 0205 	orrs.w	r2, r4, r5
   832b2:	9304      	str	r3, [sp, #16]
   832b4:	f04f 0900 	mov.w	r9, #0
   832b8:	f47f aeee 	bne.w	83098 <_vfiprintf_r+0xa2c>
   832bc:	2400      	movs	r4, #0
   832be:	2500      	movs	r5, #0
   832c0:	e6ea      	b.n	83098 <_vfiprintf_r+0xa2c>
   832c2:	9b04      	ldr	r3, [sp, #16]
   832c4:	e7f3      	b.n	832ae <_vfiprintf_r+0xc42>
   832c6:	9a04      	ldr	r2, [sp, #16]
   832c8:	f88d 902f 	strb.w	r9, [sp, #47]	; 0x2f
   832cc:	4613      	mov	r3, r2
   832ce:	6814      	ldr	r4, [r2, #0]
   832d0:	9a01      	ldr	r2, [sp, #4]
   832d2:	3304      	adds	r3, #4
   832d4:	2a00      	cmp	r2, #0
   832d6:	f04f 0500 	mov.w	r5, #0
   832da:	db50      	blt.n	8337e <_vfiprintf_r+0xd12>
   832dc:	ea54 0205 	orrs.w	r2, r4, r5
   832e0:	f026 0680 	bic.w	r6, r6, #128	; 0x80
   832e4:	9304      	str	r3, [sp, #16]
   832e6:	f47f ac72 	bne.w	82bce <_vfiprintf_r+0x562>
   832ea:	e468      	b.n	82bbe <_vfiprintf_r+0x552>
   832ec:	aa0d      	add	r2, sp, #52	; 0x34
   832ee:	9900      	ldr	r1, [sp, #0]
   832f0:	9805      	ldr	r0, [sp, #20]
   832f2:	f7ff f97f 	bl	825f4 <__sprint_r.part.0>
   832f6:	2800      	cmp	r0, #0
   832f8:	f47f ae53 	bne.w	82fa2 <_vfiprintf_r+0x936>
   832fc:	9a0f      	ldr	r2, [sp, #60]	; 0x3c
   832fe:	e678      	b.n	82ff2 <_vfiprintf_r+0x986>
   83300:	4610      	mov	r0, r2
   83302:	f04f 0e01 	mov.w	lr, #1
   83306:	46d3      	mov	fp, sl
   83308:	e5f6      	b.n	82ef8 <_vfiprintf_r+0x88c>
   8330a:	9904      	ldr	r1, [sp, #16]
   8330c:	f88d 302f 	strb.w	r3, [sp, #47]	; 0x2f
   83310:	460a      	mov	r2, r1
   83312:	880c      	ldrh	r4, [r1, #0]
   83314:	9901      	ldr	r1, [sp, #4]
   83316:	3204      	adds	r2, #4
   83318:	2900      	cmp	r1, #0
   8331a:	f04f 0500 	mov.w	r5, #0
   8331e:	db55      	blt.n	833cc <_vfiprintf_r+0xd60>
   83320:	ea54 0105 	orrs.w	r1, r4, r5
   83324:	f026 0680 	bic.w	r6, r6, #128	; 0x80
   83328:	9204      	str	r2, [sp, #16]
   8332a:	4699      	mov	r9, r3
   8332c:	f47f ac03 	bne.w	82b36 <_vfiprintf_r+0x4ca>
   83330:	e4df      	b.n	82cf2 <_vfiprintf_r+0x686>
   83332:	9304      	str	r3, [sp, #16]
   83334:	e704      	b.n	83140 <_vfiprintf_r+0xad4>
   83336:	4638      	mov	r0, r7
   83338:	9404      	str	r4, [sp, #16]
   8333a:	f7ff f8ed 	bl	82518 <strlen>
   8333e:	2300      	movs	r3, #0
   83340:	9003      	str	r0, [sp, #12]
   83342:	f89d 902f 	ldrb.w	r9, [sp, #47]	; 0x2f
   83346:	9301      	str	r3, [sp, #4]
   83348:	f7ff bab6 	b.w	828b8 <_vfiprintf_r+0x24c>
   8334c:	aa0d      	add	r2, sp, #52	; 0x34
   8334e:	9900      	ldr	r1, [sp, #0]
   83350:	9805      	ldr	r0, [sp, #20]
   83352:	f7ff f94f 	bl	825f4 <__sprint_r.part.0>
   83356:	2800      	cmp	r0, #0
   83358:	f47f ae23 	bne.w	82fa2 <_vfiprintf_r+0x936>
   8335c:	980e      	ldr	r0, [sp, #56]	; 0x38
   8335e:	46d3      	mov	fp, sl
   83360:	9a0f      	ldr	r2, [sp, #60]	; 0x3c
   83362:	f100 0e01 	add.w	lr, r0, #1
   83366:	e5c7      	b.n	82ef8 <_vfiprintf_r+0x88c>
   83368:	980e      	ldr	r0, [sp, #56]	; 0x38
   8336a:	9a0f      	ldr	r2, [sp, #60]	; 0x3c
   8336c:	3001      	adds	r0, #1
   8336e:	f8df 90dc 	ldr.w	r9, [pc, #220]	; 8344c <_vfiprintf_r+0xde0>
   83372:	f7ff baec 	b.w	8294e <_vfiprintf_r+0x2e2>
   83376:	461e      	mov	r6, r3
   83378:	f04f 0900 	mov.w	r9, #0
   8337c:	e68c      	b.n	83098 <_vfiprintf_r+0xa2c>
   8337e:	9304      	str	r3, [sp, #16]
   83380:	e423      	b.n	82bca <_vfiprintf_r+0x55e>
   83382:	f04f 0900 	mov.w	r9, #0
   83386:	e799      	b.n	832bc <_vfiprintf_r+0xc50>
   83388:	2b06      	cmp	r3, #6
   8338a:	bf28      	it	cs
   8338c:	2306      	movcs	r3, #6
   8338e:	9303      	str	r3, [sp, #12]
   83390:	9404      	str	r4, [sp, #16]
   83392:	ea23 75e3 	bic.w	r5, r3, r3, asr #31
   83396:	4f2c      	ldr	r7, [pc, #176]	; (83448 <_vfiprintf_r+0xddc>)
   83398:	e512      	b.n	82dc0 <_vfiprintf_r+0x754>
   8339a:	9204      	str	r2, [sp, #16]
   8339c:	e415      	b.n	82bca <_vfiprintf_r+0x55e>
   8339e:	980e      	ldr	r0, [sp, #56]	; 0x38
   833a0:	f8df 90a8 	ldr.w	r9, [pc, #168]	; 8344c <_vfiprintf_r+0xde0>
   833a4:	3001      	adds	r0, #1
   833a6:	f7ff bb88 	b.w	82aba <_vfiprintf_r+0x44e>
   833aa:	46f4      	mov	ip, lr
   833ac:	f8df 90a0 	ldr.w	r9, [pc, #160]	; 83450 <_vfiprintf_r+0xde4>
   833b0:	f7ff bb2d 	b.w	82a0e <_vfiprintf_r+0x3a2>
   833b4:	2200      	movs	r2, #0
   833b6:	9201      	str	r2, [sp, #4]
   833b8:	f7ff b9c1 	b.w	8273e <_vfiprintf_r+0xd2>
   833bc:	9b01      	ldr	r3, [sp, #4]
   833be:	9404      	str	r4, [sp, #16]
   833c0:	9303      	str	r3, [sp, #12]
   833c2:	9001      	str	r0, [sp, #4]
   833c4:	f89d 902f 	ldrb.w	r9, [sp, #47]	; 0x2f
   833c8:	f7ff ba76 	b.w	828b8 <_vfiprintf_r+0x24c>
   833cc:	9204      	str	r2, [sp, #16]
   833ce:	4699      	mov	r9, r3
   833d0:	e6b6      	b.n	83140 <_vfiprintf_r+0xad4>
   833d2:	9a04      	ldr	r2, [sp, #16]
   833d4:	6813      	ldr	r3, [r2, #0]
   833d6:	3204      	adds	r2, #4
   833d8:	2b00      	cmp	r3, #0
   833da:	9301      	str	r3, [sp, #4]
   833dc:	9204      	str	r2, [sp, #16]
   833de:	f898 3001 	ldrb.w	r3, [r8, #1]
   833e2:	46a8      	mov	r8, r5
   833e4:	f6bf a9a9 	bge.w	8273a <_vfiprintf_r+0xce>
   833e8:	f04f 32ff 	mov.w	r2, #4294967295
   833ec:	9201      	str	r2, [sp, #4]
   833ee:	f7ff b9a4 	b.w	8273a <_vfiprintf_r+0xce>
   833f2:	f88d 002f 	strb.w	r0, [sp, #47]	; 0x2f
   833f6:	e45f      	b.n	82cb8 <_vfiprintf_r+0x64c>
   833f8:	f88d 002f 	strb.w	r0, [sp, #47]	; 0x2f
   833fc:	f7ff bbc4 	b.w	82b88 <_vfiprintf_r+0x51c>
   83400:	f88d 002f 	strb.w	r0, [sp, #47]	; 0x2f
   83404:	f7ff bb77 	b.w	82af6 <_vfiprintf_r+0x48a>
   83408:	f88d 002f 	strb.w	r0, [sp, #47]	; 0x2f
   8340c:	e487      	b.n	82d1e <_vfiprintf_r+0x6b2>
   8340e:	f88d 002f 	strb.w	r0, [sp, #47]	; 0x2f
   83412:	e4a7      	b.n	82d64 <_vfiprintf_r+0x6f8>
   83414:	4699      	mov	r9, r3
   83416:	07f3      	lsls	r3, r6, #31
   83418:	d505      	bpl.n	83426 <_vfiprintf_r+0xdba>
   8341a:	af2a      	add	r7, sp, #168	; 0xa8
   8341c:	2330      	movs	r3, #48	; 0x30
   8341e:	f807 3d41 	strb.w	r3, [r7, #-65]!
   83422:	f7ff bba2 	b.w	82b6a <_vfiprintf_r+0x4fe>
   83426:	9b01      	ldr	r3, [sp, #4]
   83428:	4657      	mov	r7, sl
   8342a:	9303      	str	r3, [sp, #12]
   8342c:	f7ff ba44 	b.w	828b8 <_vfiprintf_r+0x24c>
   83430:	f88d 002f 	strb.w	r0, [sp, #47]	; 0x2f
   83434:	e517      	b.n	82e66 <_vfiprintf_r+0x7fa>
   83436:	f88d 002f 	strb.w	r0, [sp, #47]	; 0x2f
   8343a:	e4fa      	b.n	82e32 <_vfiprintf_r+0x7c6>
   8343c:	f88d 002f 	strb.w	r0, [sp, #47]	; 0x2f
   83440:	e4d2      	b.n	82de8 <_vfiprintf_r+0x77c>
   83442:	bf00      	nop
   83444:	00085c34 	.word	0x00085c34
   83448:	00085c48 	.word	0x00085c48
   8344c:	00085c50 	.word	0x00085c50
   83450:	00085c10 	.word	0x00085c10

00083454 <__sbprintf>:
   83454:	b5f0      	push	{r4, r5, r6, r7, lr}
   83456:	460c      	mov	r4, r1
   83458:	8989      	ldrh	r1, [r1, #12]
   8345a:	f2ad 4d6c 	subw	sp, sp, #1132	; 0x46c
   8345e:	6e65      	ldr	r5, [r4, #100]	; 0x64
   83460:	f021 0102 	bic.w	r1, r1, #2
   83464:	6a66      	ldr	r6, [r4, #36]	; 0x24
   83466:	f8ad 100c 	strh.w	r1, [sp, #12]
   8346a:	69e1      	ldr	r1, [r4, #28]
   8346c:	89e7      	ldrh	r7, [r4, #14]
   8346e:	9519      	str	r5, [sp, #100]	; 0x64
   83470:	2500      	movs	r5, #0
   83472:	9107      	str	r1, [sp, #28]
   83474:	9609      	str	r6, [sp, #36]	; 0x24
   83476:	9506      	str	r5, [sp, #24]
   83478:	ae1a      	add	r6, sp, #104	; 0x68
   8347a:	f44f 6580 	mov.w	r5, #1024	; 0x400
   8347e:	4669      	mov	r1, sp
   83480:	9600      	str	r6, [sp, #0]
   83482:	9604      	str	r6, [sp, #16]
   83484:	9502      	str	r5, [sp, #8]
   83486:	9505      	str	r5, [sp, #20]
   83488:	f8ad 700e 	strh.w	r7, [sp, #14]
   8348c:	4606      	mov	r6, r0
   8348e:	f7ff f8ed 	bl	8266c <_vfiprintf_r>
   83492:	1e05      	subs	r5, r0, #0
   83494:	db07      	blt.n	834a6 <__sbprintf+0x52>
   83496:	4630      	mov	r0, r6
   83498:	4669      	mov	r1, sp
   8349a:	f000 f929 	bl	836f0 <_fflush_r>
   8349e:	2800      	cmp	r0, #0
   834a0:	bf18      	it	ne
   834a2:	f04f 35ff 	movne.w	r5, #4294967295
   834a6:	f8bd 300c 	ldrh.w	r3, [sp, #12]
   834aa:	065b      	lsls	r3, r3, #25
   834ac:	d503      	bpl.n	834b6 <__sbprintf+0x62>
   834ae:	89a3      	ldrh	r3, [r4, #12]
   834b0:	f043 0340 	orr.w	r3, r3, #64	; 0x40
   834b4:	81a3      	strh	r3, [r4, #12]
   834b6:	4628      	mov	r0, r5
   834b8:	f20d 4d6c 	addw	sp, sp, #1132	; 0x46c
   834bc:	bdf0      	pop	{r4, r5, r6, r7, pc}
   834be:	bf00      	nop

000834c0 <__swsetup_r>:
   834c0:	b538      	push	{r3, r4, r5, lr}
   834c2:	4b30      	ldr	r3, [pc, #192]	; (83584 <__swsetup_r+0xc4>)
   834c4:	4605      	mov	r5, r0
   834c6:	6818      	ldr	r0, [r3, #0]
   834c8:	460c      	mov	r4, r1
   834ca:	b110      	cbz	r0, 834d2 <__swsetup_r+0x12>
   834cc:	6b83      	ldr	r3, [r0, #56]	; 0x38
   834ce:	2b00      	cmp	r3, #0
   834d0:	d038      	beq.n	83544 <__swsetup_r+0x84>
   834d2:	f9b4 200c 	ldrsh.w	r2, [r4, #12]
   834d6:	b293      	uxth	r3, r2
   834d8:	0718      	lsls	r0, r3, #28
   834da:	d50c      	bpl.n	834f6 <__swsetup_r+0x36>
   834dc:	6920      	ldr	r0, [r4, #16]
   834de:	b1a8      	cbz	r0, 8350c <__swsetup_r+0x4c>
   834e0:	f013 0201 	ands.w	r2, r3, #1
   834e4:	d01e      	beq.n	83524 <__swsetup_r+0x64>
   834e6:	6963      	ldr	r3, [r4, #20]
   834e8:	2200      	movs	r2, #0
   834ea:	425b      	negs	r3, r3
   834ec:	61a3      	str	r3, [r4, #24]
   834ee:	60a2      	str	r2, [r4, #8]
   834f0:	b1f0      	cbz	r0, 83530 <__swsetup_r+0x70>
   834f2:	2000      	movs	r0, #0
   834f4:	bd38      	pop	{r3, r4, r5, pc}
   834f6:	06d9      	lsls	r1, r3, #27
   834f8:	d53b      	bpl.n	83572 <__swsetup_r+0xb2>
   834fa:	0758      	lsls	r0, r3, #29
   834fc:	d425      	bmi.n	8354a <__swsetup_r+0x8a>
   834fe:	6920      	ldr	r0, [r4, #16]
   83500:	f042 0308 	orr.w	r3, r2, #8
   83504:	81a3      	strh	r3, [r4, #12]
   83506:	b29b      	uxth	r3, r3
   83508:	2800      	cmp	r0, #0
   8350a:	d1e9      	bne.n	834e0 <__swsetup_r+0x20>
   8350c:	f403 7220 	and.w	r2, r3, #640	; 0x280
   83510:	f5b2 7f00 	cmp.w	r2, #512	; 0x200
   83514:	d0e4      	beq.n	834e0 <__swsetup_r+0x20>
   83516:	4628      	mov	r0, r5
   83518:	4621      	mov	r1, r4
   8351a:	f000 fd13 	bl	83f44 <__smakebuf_r>
   8351e:	89a3      	ldrh	r3, [r4, #12]
   83520:	6920      	ldr	r0, [r4, #16]
   83522:	e7dd      	b.n	834e0 <__swsetup_r+0x20>
   83524:	0799      	lsls	r1, r3, #30
   83526:	bf58      	it	pl
   83528:	6962      	ldrpl	r2, [r4, #20]
   8352a:	60a2      	str	r2, [r4, #8]
   8352c:	2800      	cmp	r0, #0
   8352e:	d1e0      	bne.n	834f2 <__swsetup_r+0x32>
   83530:	f9b4 300c 	ldrsh.w	r3, [r4, #12]
   83534:	061a      	lsls	r2, r3, #24
   83536:	d5dd      	bpl.n	834f4 <__swsetup_r+0x34>
   83538:	f043 0340 	orr.w	r3, r3, #64	; 0x40
   8353c:	81a3      	strh	r3, [r4, #12]
   8353e:	f04f 30ff 	mov.w	r0, #4294967295
   83542:	bd38      	pop	{r3, r4, r5, pc}
   83544:	f000 f968 	bl	83818 <__sinit>
   83548:	e7c3      	b.n	834d2 <__swsetup_r+0x12>
   8354a:	6b21      	ldr	r1, [r4, #48]	; 0x30
   8354c:	b151      	cbz	r1, 83564 <__swsetup_r+0xa4>
   8354e:	f104 0340 	add.w	r3, r4, #64	; 0x40
   83552:	4299      	cmp	r1, r3
   83554:	d004      	beq.n	83560 <__swsetup_r+0xa0>
   83556:	4628      	mov	r0, r5
   83558:	f000 fa26 	bl	839a8 <_free_r>
   8355c:	f9b4 200c 	ldrsh.w	r2, [r4, #12]
   83560:	2300      	movs	r3, #0
   83562:	6323      	str	r3, [r4, #48]	; 0x30
   83564:	6920      	ldr	r0, [r4, #16]
   83566:	2300      	movs	r3, #0
   83568:	f022 0224 	bic.w	r2, r2, #36	; 0x24
   8356c:	e884 0009 	stmia.w	r4, {r0, r3}
   83570:	e7c6      	b.n	83500 <__swsetup_r+0x40>
   83572:	f042 0240 	orr.w	r2, r2, #64	; 0x40
   83576:	2309      	movs	r3, #9
   83578:	602b      	str	r3, [r5, #0]
   8357a:	f04f 30ff 	mov.w	r0, #4294967295
   8357e:	81a2      	strh	r2, [r4, #12]
   83580:	bd38      	pop	{r3, r4, r5, pc}
   83582:	bf00      	nop
   83584:	20000570 	.word	0x20000570

00083588 <register_fini>:
   83588:	4b02      	ldr	r3, [pc, #8]	; (83594 <register_fini+0xc>)
   8358a:	b113      	cbz	r3, 83592 <register_fini+0xa>
   8358c:	4802      	ldr	r0, [pc, #8]	; (83598 <register_fini+0x10>)
   8358e:	f000 b805 	b.w	8359c <atexit>
   83592:	4770      	bx	lr
   83594:	00000000 	.word	0x00000000
   83598:	0008382d 	.word	0x0008382d

0008359c <atexit>:
   8359c:	2300      	movs	r3, #0
   8359e:	4601      	mov	r1, r0
   835a0:	461a      	mov	r2, r3
   835a2:	4618      	mov	r0, r3
   835a4:	f001 bbce 	b.w	84d44 <__register_exitproc>

000835a8 <__sflush_r>:
   835a8:	f9b1 300c 	ldrsh.w	r3, [r1, #12]
   835ac:	e92d 41f0 	stmdb	sp!, {r4, r5, r6, r7, r8, lr}
   835b0:	b29a      	uxth	r2, r3
   835b2:	460d      	mov	r5, r1
   835b4:	0711      	lsls	r1, r2, #28
   835b6:	4680      	mov	r8, r0
   835b8:	d43c      	bmi.n	83634 <__sflush_r+0x8c>
   835ba:	686a      	ldr	r2, [r5, #4]
   835bc:	f443 6300 	orr.w	r3, r3, #2048	; 0x800
   835c0:	2a00      	cmp	r2, #0
   835c2:	81ab      	strh	r3, [r5, #12]
   835c4:	dd73      	ble.n	836ae <__sflush_r+0x106>
   835c6:	6aac      	ldr	r4, [r5, #40]	; 0x28
   835c8:	2c00      	cmp	r4, #0
   835ca:	d04b      	beq.n	83664 <__sflush_r+0xbc>
   835cc:	b29b      	uxth	r3, r3
   835ce:	f403 5280 	and.w	r2, r3, #4096	; 0x1000
   835d2:	2100      	movs	r1, #0
   835d4:	b292      	uxth	r2, r2
   835d6:	f8d8 6000 	ldr.w	r6, [r8]
   835da:	f8c8 1000 	str.w	r1, [r8]
   835de:	2a00      	cmp	r2, #0
   835e0:	d069      	beq.n	836b6 <__sflush_r+0x10e>
   835e2:	6d2a      	ldr	r2, [r5, #80]	; 0x50
   835e4:	075f      	lsls	r7, r3, #29
   835e6:	d505      	bpl.n	835f4 <__sflush_r+0x4c>
   835e8:	6869      	ldr	r1, [r5, #4]
   835ea:	6b2b      	ldr	r3, [r5, #48]	; 0x30
   835ec:	1a52      	subs	r2, r2, r1
   835ee:	b10b      	cbz	r3, 835f4 <__sflush_r+0x4c>
   835f0:	6beb      	ldr	r3, [r5, #60]	; 0x3c
   835f2:	1ad2      	subs	r2, r2, r3
   835f4:	2300      	movs	r3, #0
   835f6:	69e9      	ldr	r1, [r5, #28]
   835f8:	4640      	mov	r0, r8
   835fa:	47a0      	blx	r4
   835fc:	1c44      	adds	r4, r0, #1
   835fe:	d03c      	beq.n	8367a <__sflush_r+0xd2>
   83600:	f9b5 300c 	ldrsh.w	r3, [r5, #12]
   83604:	6929      	ldr	r1, [r5, #16]
   83606:	f423 6300 	bic.w	r3, r3, #2048	; 0x800
   8360a:	2200      	movs	r2, #0
   8360c:	81ab      	strh	r3, [r5, #12]
   8360e:	04db      	lsls	r3, r3, #19
   83610:	e885 0006 	stmia.w	r5, {r1, r2}
   83614:	d449      	bmi.n	836aa <__sflush_r+0x102>
   83616:	6b29      	ldr	r1, [r5, #48]	; 0x30
   83618:	f8c8 6000 	str.w	r6, [r8]
   8361c:	b311      	cbz	r1, 83664 <__sflush_r+0xbc>
   8361e:	f105 0340 	add.w	r3, r5, #64	; 0x40
   83622:	4299      	cmp	r1, r3
   83624:	d002      	beq.n	8362c <__sflush_r+0x84>
   83626:	4640      	mov	r0, r8
   83628:	f000 f9be 	bl	839a8 <_free_r>
   8362c:	2000      	movs	r0, #0
   8362e:	6328      	str	r0, [r5, #48]	; 0x30
   83630:	e8bd 81f0 	ldmia.w	sp!, {r4, r5, r6, r7, r8, pc}
   83634:	692e      	ldr	r6, [r5, #16]
   83636:	b1ae      	cbz	r6, 83664 <__sflush_r+0xbc>
   83638:	0790      	lsls	r0, r2, #30
   8363a:	682c      	ldr	r4, [r5, #0]
   8363c:	bf0c      	ite	eq
   8363e:	696b      	ldreq	r3, [r5, #20]
   83640:	2300      	movne	r3, #0
   83642:	602e      	str	r6, [r5, #0]
   83644:	1ba4      	subs	r4, r4, r6
   83646:	60ab      	str	r3, [r5, #8]
   83648:	e00a      	b.n	83660 <__sflush_r+0xb8>
   8364a:	4623      	mov	r3, r4
   8364c:	4632      	mov	r2, r6
   8364e:	6a6f      	ldr	r7, [r5, #36]	; 0x24
   83650:	69e9      	ldr	r1, [r5, #28]
   83652:	4640      	mov	r0, r8
   83654:	47b8      	blx	r7
   83656:	2800      	cmp	r0, #0
   83658:	eba4 0400 	sub.w	r4, r4, r0
   8365c:	4406      	add	r6, r0
   8365e:	dd04      	ble.n	8366a <__sflush_r+0xc2>
   83660:	2c00      	cmp	r4, #0
   83662:	dcf2      	bgt.n	8364a <__sflush_r+0xa2>
   83664:	2000      	movs	r0, #0
   83666:	e8bd 81f0 	ldmia.w	sp!, {r4, r5, r6, r7, r8, pc}
   8366a:	89ab      	ldrh	r3, [r5, #12]
   8366c:	f04f 30ff 	mov.w	r0, #4294967295
   83670:	f043 0340 	orr.w	r3, r3, #64	; 0x40
   83674:	81ab      	strh	r3, [r5, #12]
   83676:	e8bd 81f0 	ldmia.w	sp!, {r4, r5, r6, r7, r8, pc}
   8367a:	f8d8 2000 	ldr.w	r2, [r8]
   8367e:	2a1d      	cmp	r2, #29
   83680:	d8f3      	bhi.n	8366a <__sflush_r+0xc2>
   83682:	4b1a      	ldr	r3, [pc, #104]	; (836ec <__sflush_r+0x144>)
   83684:	40d3      	lsrs	r3, r2
   83686:	f003 0301 	and.w	r3, r3, #1
   8368a:	f083 0401 	eor.w	r4, r3, #1
   8368e:	2b00      	cmp	r3, #0
   83690:	d0eb      	beq.n	8366a <__sflush_r+0xc2>
   83692:	f9b5 300c 	ldrsh.w	r3, [r5, #12]
   83696:	6929      	ldr	r1, [r5, #16]
   83698:	f423 6300 	bic.w	r3, r3, #2048	; 0x800
   8369c:	6029      	str	r1, [r5, #0]
   8369e:	04d9      	lsls	r1, r3, #19
   836a0:	606c      	str	r4, [r5, #4]
   836a2:	81ab      	strh	r3, [r5, #12]
   836a4:	d5b7      	bpl.n	83616 <__sflush_r+0x6e>
   836a6:	2a00      	cmp	r2, #0
   836a8:	d1b5      	bne.n	83616 <__sflush_r+0x6e>
   836aa:	6528      	str	r0, [r5, #80]	; 0x50
   836ac:	e7b3      	b.n	83616 <__sflush_r+0x6e>
   836ae:	6bea      	ldr	r2, [r5, #60]	; 0x3c
   836b0:	2a00      	cmp	r2, #0
   836b2:	dc88      	bgt.n	835c6 <__sflush_r+0x1e>
   836b4:	e7d6      	b.n	83664 <__sflush_r+0xbc>
   836b6:	2301      	movs	r3, #1
   836b8:	69e9      	ldr	r1, [r5, #28]
   836ba:	4640      	mov	r0, r8
   836bc:	47a0      	blx	r4
   836be:	1c43      	adds	r3, r0, #1
   836c0:	4602      	mov	r2, r0
   836c2:	d002      	beq.n	836ca <__sflush_r+0x122>
   836c4:	89ab      	ldrh	r3, [r5, #12]
   836c6:	6aac      	ldr	r4, [r5, #40]	; 0x28
   836c8:	e78c      	b.n	835e4 <__sflush_r+0x3c>
   836ca:	f8d8 3000 	ldr.w	r3, [r8]
   836ce:	2b00      	cmp	r3, #0
   836d0:	d0f8      	beq.n	836c4 <__sflush_r+0x11c>
   836d2:	2b1d      	cmp	r3, #29
   836d4:	d001      	beq.n	836da <__sflush_r+0x132>
   836d6:	2b16      	cmp	r3, #22
   836d8:	d102      	bne.n	836e0 <__sflush_r+0x138>
   836da:	f8c8 6000 	str.w	r6, [r8]
   836de:	e7c1      	b.n	83664 <__sflush_r+0xbc>
   836e0:	89ab      	ldrh	r3, [r5, #12]
   836e2:	f043 0340 	orr.w	r3, r3, #64	; 0x40
   836e6:	81ab      	strh	r3, [r5, #12]
   836e8:	e8bd 81f0 	ldmia.w	sp!, {r4, r5, r6, r7, r8, pc}
   836ec:	20400001 	.word	0x20400001

000836f0 <_fflush_r>:
   836f0:	b510      	push	{r4, lr}
   836f2:	4604      	mov	r4, r0
   836f4:	b082      	sub	sp, #8
   836f6:	b108      	cbz	r0, 836fc <_fflush_r+0xc>
   836f8:	6b83      	ldr	r3, [r0, #56]	; 0x38
   836fa:	b153      	cbz	r3, 83712 <_fflush_r+0x22>
   836fc:	f9b1 000c 	ldrsh.w	r0, [r1, #12]
   83700:	b908      	cbnz	r0, 83706 <_fflush_r+0x16>
   83702:	b002      	add	sp, #8
   83704:	bd10      	pop	{r4, pc}
   83706:	4620      	mov	r0, r4
   83708:	b002      	add	sp, #8
   8370a:	e8bd 4010 	ldmia.w	sp!, {r4, lr}
   8370e:	f7ff bf4b 	b.w	835a8 <__sflush_r>
   83712:	9101      	str	r1, [sp, #4]
   83714:	f000 f880 	bl	83818 <__sinit>
   83718:	9901      	ldr	r1, [sp, #4]
   8371a:	e7ef      	b.n	836fc <_fflush_r+0xc>

0008371c <_cleanup_r>:
   8371c:	4901      	ldr	r1, [pc, #4]	; (83724 <_cleanup_r+0x8>)
   8371e:	f000 bbaf 	b.w	83e80 <_fwalk_reent>
   83722:	bf00      	nop
   83724:	00084e0d 	.word	0x00084e0d

00083728 <__sinit.part.1>:
   83728:	e92d 4ff0 	stmdb	sp!, {r4, r5, r6, r7, r8, r9, sl, fp, lr}
   8372c:	4607      	mov	r7, r0
   8372e:	4835      	ldr	r0, [pc, #212]	; (83804 <__sinit.part.1+0xdc>)
   83730:	687d      	ldr	r5, [r7, #4]
   83732:	2400      	movs	r4, #0
   83734:	f507 723b 	add.w	r2, r7, #748	; 0x2ec
   83738:	2304      	movs	r3, #4
   8373a:	2103      	movs	r1, #3
   8373c:	63f8      	str	r0, [r7, #60]	; 0x3c
   8373e:	f8c7 12e4 	str.w	r1, [r7, #740]	; 0x2e4
   83742:	f8c7 22e8 	str.w	r2, [r7, #744]	; 0x2e8
   83746:	f8c7 42e0 	str.w	r4, [r7, #736]	; 0x2e0
   8374a:	b083      	sub	sp, #12
   8374c:	602c      	str	r4, [r5, #0]
   8374e:	606c      	str	r4, [r5, #4]
   83750:	60ac      	str	r4, [r5, #8]
   83752:	666c      	str	r4, [r5, #100]	; 0x64
   83754:	81ec      	strh	r4, [r5, #14]
   83756:	612c      	str	r4, [r5, #16]
   83758:	616c      	str	r4, [r5, #20]
   8375a:	61ac      	str	r4, [r5, #24]
   8375c:	81ab      	strh	r3, [r5, #12]
   8375e:	4621      	mov	r1, r4
   83760:	f105 005c 	add.w	r0, r5, #92	; 0x5c
   83764:	2208      	movs	r2, #8
   83766:	f7fe fd9d 	bl	822a4 <memset>
   8376a:	f8df b09c 	ldr.w	fp, [pc, #156]	; 83808 <__sinit.part.1+0xe0>
   8376e:	68be      	ldr	r6, [r7, #8]
   83770:	f8df a098 	ldr.w	sl, [pc, #152]	; 8380c <__sinit.part.1+0xe4>
   83774:	f8df 9098 	ldr.w	r9, [pc, #152]	; 83810 <__sinit.part.1+0xe8>
   83778:	f8df 8098 	ldr.w	r8, [pc, #152]	; 83814 <__sinit.part.1+0xec>
   8377c:	2301      	movs	r3, #1
   8377e:	2209      	movs	r2, #9
   83780:	f8c5 b020 	str.w	fp, [r5, #32]
   83784:	f8c5 a024 	str.w	sl, [r5, #36]	; 0x24
   83788:	f8c5 9028 	str.w	r9, [r5, #40]	; 0x28
   8378c:	f8c5 802c 	str.w	r8, [r5, #44]	; 0x2c
   83790:	61ed      	str	r5, [r5, #28]
   83792:	4621      	mov	r1, r4
   83794:	81f3      	strh	r3, [r6, #14]
   83796:	81b2      	strh	r2, [r6, #12]
   83798:	f106 005c 	add.w	r0, r6, #92	; 0x5c
   8379c:	6034      	str	r4, [r6, #0]
   8379e:	6074      	str	r4, [r6, #4]
   837a0:	60b4      	str	r4, [r6, #8]
   837a2:	6674      	str	r4, [r6, #100]	; 0x64
   837a4:	6134      	str	r4, [r6, #16]
   837a6:	6174      	str	r4, [r6, #20]
   837a8:	61b4      	str	r4, [r6, #24]
   837aa:	2208      	movs	r2, #8
   837ac:	9301      	str	r3, [sp, #4]
   837ae:	f7fe fd79 	bl	822a4 <memset>
   837b2:	68fd      	ldr	r5, [r7, #12]
   837b4:	2012      	movs	r0, #18
   837b6:	2202      	movs	r2, #2
   837b8:	61f6      	str	r6, [r6, #28]
   837ba:	f8c6 b020 	str.w	fp, [r6, #32]
   837be:	f8c6 a024 	str.w	sl, [r6, #36]	; 0x24
   837c2:	f8c6 9028 	str.w	r9, [r6, #40]	; 0x28
   837c6:	f8c6 802c 	str.w	r8, [r6, #44]	; 0x2c
   837ca:	4621      	mov	r1, r4
   837cc:	81a8      	strh	r0, [r5, #12]
   837ce:	81ea      	strh	r2, [r5, #14]
   837d0:	602c      	str	r4, [r5, #0]
   837d2:	606c      	str	r4, [r5, #4]
   837d4:	60ac      	str	r4, [r5, #8]
   837d6:	666c      	str	r4, [r5, #100]	; 0x64
   837d8:	612c      	str	r4, [r5, #16]
   837da:	616c      	str	r4, [r5, #20]
   837dc:	61ac      	str	r4, [r5, #24]
   837de:	f105 005c 	add.w	r0, r5, #92	; 0x5c
   837e2:	2208      	movs	r2, #8
   837e4:	f7fe fd5e 	bl	822a4 <memset>
   837e8:	9b01      	ldr	r3, [sp, #4]
   837ea:	61ed      	str	r5, [r5, #28]
   837ec:	f8c5 b020 	str.w	fp, [r5, #32]
   837f0:	f8c5 a024 	str.w	sl, [r5, #36]	; 0x24
   837f4:	f8c5 9028 	str.w	r9, [r5, #40]	; 0x28
   837f8:	f8c5 802c 	str.w	r8, [r5, #44]	; 0x2c
   837fc:	63bb      	str	r3, [r7, #56]	; 0x38
   837fe:	b003      	add	sp, #12
   83800:	e8bd 8ff0 	ldmia.w	sp!, {r4, r5, r6, r7, r8, r9, sl, fp, pc}
   83804:	0008371d 	.word	0x0008371d
   83808:	00084b75 	.word	0x00084b75
   8380c:	00084b99 	.word	0x00084b99
   83810:	00084bd5 	.word	0x00084bd5
   83814:	00084bf5 	.word	0x00084bf5

00083818 <__sinit>:
   83818:	6b83      	ldr	r3, [r0, #56]	; 0x38
   8381a:	b103      	cbz	r3, 8381e <__sinit+0x6>
   8381c:	4770      	bx	lr
   8381e:	f7ff bf83 	b.w	83728 <__sinit.part.1>
   83822:	bf00      	nop

00083824 <__sfp_lock_acquire>:
   83824:	4770      	bx	lr
   83826:	bf00      	nop

00083828 <__sfp_lock_release>:
   83828:	4770      	bx	lr
   8382a:	bf00      	nop

0008382c <__libc_fini_array>:
   8382c:	b538      	push	{r3, r4, r5, lr}
   8382e:	4d07      	ldr	r5, [pc, #28]	; (8384c <__libc_fini_array+0x20>)
   83830:	4c07      	ldr	r4, [pc, #28]	; (83850 <__libc_fini_array+0x24>)
   83832:	1b2c      	subs	r4, r5, r4
   83834:	10a4      	asrs	r4, r4, #2
   83836:	d005      	beq.n	83844 <__libc_fini_array+0x18>
   83838:	3c01      	subs	r4, #1
   8383a:	f855 3d04 	ldr.w	r3, [r5, #-4]!
   8383e:	4798      	blx	r3
   83840:	2c00      	cmp	r4, #0
   83842:	d1f9      	bne.n	83838 <__libc_fini_array+0xc>
   83844:	e8bd 4038 	ldmia.w	sp!, {r3, r4, r5, lr}
   83848:	f002 ba14 	b.w	85c74 <_fini>
   8384c:	00085c84 	.word	0x00085c84
   83850:	00085c80 	.word	0x00085c80

00083854 <__fputwc>:
   83854:	e92d 41f0 	stmdb	sp!, {r4, r5, r6, r7, r8, lr}
   83858:	b082      	sub	sp, #8
   8385a:	4606      	mov	r6, r0
   8385c:	460f      	mov	r7, r1
   8385e:	4614      	mov	r4, r2
   83860:	f000 fb3a 	bl	83ed8 <__locale_mb_cur_max>
   83864:	2801      	cmp	r0, #1
   83866:	d032      	beq.n	838ce <__fputwc+0x7a>
   83868:	f104 035c 	add.w	r3, r4, #92	; 0x5c
   8386c:	463a      	mov	r2, r7
   8386e:	a901      	add	r1, sp, #4
   83870:	4630      	mov	r0, r6
   83872:	f001 fa19 	bl	84ca8 <_wcrtomb_r>
   83876:	f1b0 3fff 	cmp.w	r0, #4294967295
   8387a:	4680      	mov	r8, r0
   8387c:	d020      	beq.n	838c0 <__fputwc+0x6c>
   8387e:	b370      	cbz	r0, 838de <__fputwc+0x8a>
   83880:	f89d 1004 	ldrb.w	r1, [sp, #4]
   83884:	2500      	movs	r5, #0
   83886:	e008      	b.n	8389a <__fputwc+0x46>
   83888:	6823      	ldr	r3, [r4, #0]
   8388a:	1c5a      	adds	r2, r3, #1
   8388c:	6022      	str	r2, [r4, #0]
   8388e:	7019      	strb	r1, [r3, #0]
   83890:	3501      	adds	r5, #1
   83892:	4545      	cmp	r5, r8
   83894:	d223      	bcs.n	838de <__fputwc+0x8a>
   83896:	ab01      	add	r3, sp, #4
   83898:	5d59      	ldrb	r1, [r3, r5]
   8389a:	68a3      	ldr	r3, [r4, #8]
   8389c:	3b01      	subs	r3, #1
   8389e:	2b00      	cmp	r3, #0
   838a0:	60a3      	str	r3, [r4, #8]
   838a2:	daf1      	bge.n	83888 <__fputwc+0x34>
   838a4:	69a2      	ldr	r2, [r4, #24]
   838a6:	4293      	cmp	r3, r2
   838a8:	db01      	blt.n	838ae <__fputwc+0x5a>
   838aa:	290a      	cmp	r1, #10
   838ac:	d1ec      	bne.n	83888 <__fputwc+0x34>
   838ae:	4622      	mov	r2, r4
   838b0:	4630      	mov	r0, r6
   838b2:	f001 f9a3 	bl	84bfc <__swbuf_r>
   838b6:	1c43      	adds	r3, r0, #1
   838b8:	d1ea      	bne.n	83890 <__fputwc+0x3c>
   838ba:	b002      	add	sp, #8
   838bc:	e8bd 81f0 	ldmia.w	sp!, {r4, r5, r6, r7, r8, pc}
   838c0:	89a3      	ldrh	r3, [r4, #12]
   838c2:	f043 0340 	orr.w	r3, r3, #64	; 0x40
   838c6:	81a3      	strh	r3, [r4, #12]
   838c8:	b002      	add	sp, #8
   838ca:	e8bd 81f0 	ldmia.w	sp!, {r4, r5, r6, r7, r8, pc}
   838ce:	1e7b      	subs	r3, r7, #1
   838d0:	2bfe      	cmp	r3, #254	; 0xfe
   838d2:	d8c9      	bhi.n	83868 <__fputwc+0x14>
   838d4:	b2f9      	uxtb	r1, r7
   838d6:	4680      	mov	r8, r0
   838d8:	f88d 1004 	strb.w	r1, [sp, #4]
   838dc:	e7d2      	b.n	83884 <__fputwc+0x30>
   838de:	4638      	mov	r0, r7
   838e0:	b002      	add	sp, #8
   838e2:	e8bd 81f0 	ldmia.w	sp!, {r4, r5, r6, r7, r8, pc}
   838e6:	bf00      	nop

000838e8 <_fputwc_r>:
   838e8:	f9b2 300c 	ldrsh.w	r3, [r2, #12]
   838ec:	f413 5f00 	tst.w	r3, #8192	; 0x2000
   838f0:	d10a      	bne.n	83908 <_fputwc_r+0x20>
   838f2:	b410      	push	{r4}
   838f4:	6e54      	ldr	r4, [r2, #100]	; 0x64
   838f6:	f443 5300 	orr.w	r3, r3, #8192	; 0x2000
   838fa:	f444 5400 	orr.w	r4, r4, #8192	; 0x2000
   838fe:	6654      	str	r4, [r2, #100]	; 0x64
   83900:	8193      	strh	r3, [r2, #12]
   83902:	bc10      	pop	{r4}
   83904:	f7ff bfa6 	b.w	83854 <__fputwc>
   83908:	f7ff bfa4 	b.w	83854 <__fputwc>

0008390c <_malloc_trim_r>:
   8390c:	b5f8      	push	{r3, r4, r5, r6, r7, lr}
   8390e:	460c      	mov	r4, r1
   83910:	4f22      	ldr	r7, [pc, #136]	; (8399c <_malloc_trim_r+0x90>)
   83912:	4606      	mov	r6, r0
   83914:	f000 ff2e 	bl	84774 <__malloc_lock>
   83918:	68bb      	ldr	r3, [r7, #8]
   8391a:	685d      	ldr	r5, [r3, #4]
   8391c:	f025 0503 	bic.w	r5, r5, #3
   83920:	1b29      	subs	r1, r5, r4
   83922:	f601 71ef 	addw	r1, r1, #4079	; 0xfef
   83926:	f421 617f 	bic.w	r1, r1, #4080	; 0xff0
   8392a:	f021 010f 	bic.w	r1, r1, #15
   8392e:	f5a1 5480 	sub.w	r4, r1, #4096	; 0x1000
   83932:	f5b4 5f80 	cmp.w	r4, #4096	; 0x1000
   83936:	db07      	blt.n	83948 <_malloc_trim_r+0x3c>
   83938:	2100      	movs	r1, #0
   8393a:	4630      	mov	r0, r6
   8393c:	f001 f908 	bl	84b50 <_sbrk_r>
   83940:	68bb      	ldr	r3, [r7, #8]
   83942:	442b      	add	r3, r5
   83944:	4298      	cmp	r0, r3
   83946:	d004      	beq.n	83952 <_malloc_trim_r+0x46>
   83948:	4630      	mov	r0, r6
   8394a:	f000 ff15 	bl	84778 <__malloc_unlock>
   8394e:	2000      	movs	r0, #0
   83950:	bdf8      	pop	{r3, r4, r5, r6, r7, pc}
   83952:	4261      	negs	r1, r4
   83954:	4630      	mov	r0, r6
   83956:	f001 f8fb 	bl	84b50 <_sbrk_r>
   8395a:	3001      	adds	r0, #1
   8395c:	d00d      	beq.n	8397a <_malloc_trim_r+0x6e>
   8395e:	4b10      	ldr	r3, [pc, #64]	; (839a0 <_malloc_trim_r+0x94>)
   83960:	68ba      	ldr	r2, [r7, #8]
   83962:	6819      	ldr	r1, [r3, #0]
   83964:	1b2d      	subs	r5, r5, r4
   83966:	f045 0501 	orr.w	r5, r5, #1
   8396a:	4630      	mov	r0, r6
   8396c:	1b09      	subs	r1, r1, r4
   8396e:	6055      	str	r5, [r2, #4]
   83970:	6019      	str	r1, [r3, #0]
   83972:	f000 ff01 	bl	84778 <__malloc_unlock>
   83976:	2001      	movs	r0, #1
   83978:	bdf8      	pop	{r3, r4, r5, r6, r7, pc}
   8397a:	2100      	movs	r1, #0
   8397c:	4630      	mov	r0, r6
   8397e:	f001 f8e7 	bl	84b50 <_sbrk_r>
   83982:	68ba      	ldr	r2, [r7, #8]
   83984:	1a83      	subs	r3, r0, r2
   83986:	2b0f      	cmp	r3, #15
   83988:	ddde      	ble.n	83948 <_malloc_trim_r+0x3c>
   8398a:	4c06      	ldr	r4, [pc, #24]	; (839a4 <_malloc_trim_r+0x98>)
   8398c:	4904      	ldr	r1, [pc, #16]	; (839a0 <_malloc_trim_r+0x94>)
   8398e:	6824      	ldr	r4, [r4, #0]
   83990:	f043 0301 	orr.w	r3, r3, #1
   83994:	1b00      	subs	r0, r0, r4
   83996:	6053      	str	r3, [r2, #4]
   83998:	6008      	str	r0, [r1, #0]
   8399a:	e7d5      	b.n	83948 <_malloc_trim_r+0x3c>
   8399c:	20000598 	.word	0x20000598
   839a0:	20000c80 	.word	0x20000c80
   839a4:	200009a4 	.word	0x200009a4

000839a8 <_free_r>:
   839a8:	2900      	cmp	r1, #0
   839aa:	d045      	beq.n	83a38 <_free_r+0x90>
   839ac:	e92d 41f0 	stmdb	sp!, {r4, r5, r6, r7, r8, lr}
   839b0:	460d      	mov	r5, r1
   839b2:	4680      	mov	r8, r0
   839b4:	f000 fede 	bl	84774 <__malloc_lock>
   839b8:	f855 7c04 	ldr.w	r7, [r5, #-4]
   839bc:	496a      	ldr	r1, [pc, #424]	; (83b68 <_free_r+0x1c0>)
   839be:	f1a5 0408 	sub.w	r4, r5, #8
   839c2:	f027 0301 	bic.w	r3, r7, #1
   839c6:	18e2      	adds	r2, r4, r3
   839c8:	688e      	ldr	r6, [r1, #8]
   839ca:	6850      	ldr	r0, [r2, #4]
   839cc:	42b2      	cmp	r2, r6
   839ce:	f020 0003 	bic.w	r0, r0, #3
   839d2:	d062      	beq.n	83a9a <_free_r+0xf2>
   839d4:	07fe      	lsls	r6, r7, #31
   839d6:	6050      	str	r0, [r2, #4]
   839d8:	d40b      	bmi.n	839f2 <_free_r+0x4a>
   839da:	f855 7c08 	ldr.w	r7, [r5, #-8]
   839de:	f101 0e08 	add.w	lr, r1, #8
   839e2:	1be4      	subs	r4, r4, r7
   839e4:	68a5      	ldr	r5, [r4, #8]
   839e6:	443b      	add	r3, r7
   839e8:	4575      	cmp	r5, lr
   839ea:	d06f      	beq.n	83acc <_free_r+0x124>
   839ec:	68e7      	ldr	r7, [r4, #12]
   839ee:	60ef      	str	r7, [r5, #12]
   839f0:	60bd      	str	r5, [r7, #8]
   839f2:	1815      	adds	r5, r2, r0
   839f4:	686d      	ldr	r5, [r5, #4]
   839f6:	07ed      	lsls	r5, r5, #31
   839f8:	d542      	bpl.n	83a80 <_free_r+0xd8>
   839fa:	f043 0201 	orr.w	r2, r3, #1
   839fe:	6062      	str	r2, [r4, #4]
   83a00:	50e3      	str	r3, [r4, r3]
   83a02:	f5b3 7f00 	cmp.w	r3, #512	; 0x200
   83a06:	d218      	bcs.n	83a3a <_free_r+0x92>
   83a08:	08db      	lsrs	r3, r3, #3
   83a0a:	6848      	ldr	r0, [r1, #4]
   83a0c:	109d      	asrs	r5, r3, #2
   83a0e:	2201      	movs	r2, #1
   83a10:	3301      	adds	r3, #1
   83a12:	f851 7033 	ldr.w	r7, [r1, r3, lsl #3]
   83a16:	fa02 f505 	lsl.w	r5, r2, r5
   83a1a:	eb01 02c3 	add.w	r2, r1, r3, lsl #3
   83a1e:	4328      	orrs	r0, r5
   83a20:	3a08      	subs	r2, #8
   83a22:	60e2      	str	r2, [r4, #12]
   83a24:	60a7      	str	r7, [r4, #8]
   83a26:	6048      	str	r0, [r1, #4]
   83a28:	f841 4033 	str.w	r4, [r1, r3, lsl #3]
   83a2c:	60fc      	str	r4, [r7, #12]
   83a2e:	4640      	mov	r0, r8
   83a30:	e8bd 41f0 	ldmia.w	sp!, {r4, r5, r6, r7, r8, lr}
   83a34:	f000 bea0 	b.w	84778 <__malloc_unlock>
   83a38:	4770      	bx	lr
   83a3a:	0a5a      	lsrs	r2, r3, #9
   83a3c:	2a04      	cmp	r2, #4
   83a3e:	d853      	bhi.n	83ae8 <_free_r+0x140>
   83a40:	099a      	lsrs	r2, r3, #6
   83a42:	f102 0739 	add.w	r7, r2, #57	; 0x39
   83a46:	007f      	lsls	r7, r7, #1
   83a48:	f102 0538 	add.w	r5, r2, #56	; 0x38
   83a4c:	eb01 0087 	add.w	r0, r1, r7, lsl #2
   83a50:	f851 2027 	ldr.w	r2, [r1, r7, lsl #2]
   83a54:	3808      	subs	r0, #8
   83a56:	4290      	cmp	r0, r2
   83a58:	4943      	ldr	r1, [pc, #268]	; (83b68 <_free_r+0x1c0>)
   83a5a:	d04d      	beq.n	83af8 <_free_r+0x150>
   83a5c:	6851      	ldr	r1, [r2, #4]
   83a5e:	f021 0103 	bic.w	r1, r1, #3
   83a62:	428b      	cmp	r3, r1
   83a64:	d202      	bcs.n	83a6c <_free_r+0xc4>
   83a66:	6892      	ldr	r2, [r2, #8]
   83a68:	4290      	cmp	r0, r2
   83a6a:	d1f7      	bne.n	83a5c <_free_r+0xb4>
   83a6c:	68d0      	ldr	r0, [r2, #12]
   83a6e:	60e0      	str	r0, [r4, #12]
   83a70:	60a2      	str	r2, [r4, #8]
   83a72:	6084      	str	r4, [r0, #8]
   83a74:	60d4      	str	r4, [r2, #12]
   83a76:	4640      	mov	r0, r8
   83a78:	e8bd 41f0 	ldmia.w	sp!, {r4, r5, r6, r7, r8, lr}
   83a7c:	f000 be7c 	b.w	84778 <__malloc_unlock>
   83a80:	6895      	ldr	r5, [r2, #8]
   83a82:	4f3a      	ldr	r7, [pc, #232]	; (83b6c <_free_r+0x1c4>)
   83a84:	4403      	add	r3, r0
   83a86:	42bd      	cmp	r5, r7
   83a88:	d03f      	beq.n	83b0a <_free_r+0x162>
   83a8a:	68d0      	ldr	r0, [r2, #12]
   83a8c:	f043 0201 	orr.w	r2, r3, #1
   83a90:	60e8      	str	r0, [r5, #12]
   83a92:	6085      	str	r5, [r0, #8]
   83a94:	6062      	str	r2, [r4, #4]
   83a96:	50e3      	str	r3, [r4, r3]
   83a98:	e7b3      	b.n	83a02 <_free_r+0x5a>
   83a9a:	07ff      	lsls	r7, r7, #31
   83a9c:	4403      	add	r3, r0
   83a9e:	d407      	bmi.n	83ab0 <_free_r+0x108>
   83aa0:	f855 5c08 	ldr.w	r5, [r5, #-8]
   83aa4:	1b64      	subs	r4, r4, r5
   83aa6:	68e2      	ldr	r2, [r4, #12]
   83aa8:	68a0      	ldr	r0, [r4, #8]
   83aaa:	442b      	add	r3, r5
   83aac:	60c2      	str	r2, [r0, #12]
   83aae:	6090      	str	r0, [r2, #8]
   83ab0:	4a2f      	ldr	r2, [pc, #188]	; (83b70 <_free_r+0x1c8>)
   83ab2:	f043 0001 	orr.w	r0, r3, #1
   83ab6:	6812      	ldr	r2, [r2, #0]
   83ab8:	6060      	str	r0, [r4, #4]
   83aba:	4293      	cmp	r3, r2
   83abc:	608c      	str	r4, [r1, #8]
   83abe:	d3b6      	bcc.n	83a2e <_free_r+0x86>
   83ac0:	4b2c      	ldr	r3, [pc, #176]	; (83b74 <_free_r+0x1cc>)
   83ac2:	4640      	mov	r0, r8
   83ac4:	6819      	ldr	r1, [r3, #0]
   83ac6:	f7ff ff21 	bl	8390c <_malloc_trim_r>
   83aca:	e7b0      	b.n	83a2e <_free_r+0x86>
   83acc:	1811      	adds	r1, r2, r0
   83ace:	6849      	ldr	r1, [r1, #4]
   83ad0:	07c9      	lsls	r1, r1, #31
   83ad2:	d444      	bmi.n	83b5e <_free_r+0x1b6>
   83ad4:	6891      	ldr	r1, [r2, #8]
   83ad6:	4403      	add	r3, r0
   83ad8:	68d2      	ldr	r2, [r2, #12]
   83ada:	f043 0001 	orr.w	r0, r3, #1
   83ade:	60ca      	str	r2, [r1, #12]
   83ae0:	6091      	str	r1, [r2, #8]
   83ae2:	6060      	str	r0, [r4, #4]
   83ae4:	50e3      	str	r3, [r4, r3]
   83ae6:	e7a2      	b.n	83a2e <_free_r+0x86>
   83ae8:	2a14      	cmp	r2, #20
   83aea:	d817      	bhi.n	83b1c <_free_r+0x174>
   83aec:	f102 075c 	add.w	r7, r2, #92	; 0x5c
   83af0:	007f      	lsls	r7, r7, #1
   83af2:	f102 055b 	add.w	r5, r2, #91	; 0x5b
   83af6:	e7a9      	b.n	83a4c <_free_r+0xa4>
   83af8:	10aa      	asrs	r2, r5, #2
   83afa:	684b      	ldr	r3, [r1, #4]
   83afc:	2501      	movs	r5, #1
   83afe:	fa05 f202 	lsl.w	r2, r5, r2
   83b02:	4313      	orrs	r3, r2
   83b04:	604b      	str	r3, [r1, #4]
   83b06:	4602      	mov	r2, r0
   83b08:	e7b1      	b.n	83a6e <_free_r+0xc6>
   83b0a:	f043 0201 	orr.w	r2, r3, #1
   83b0e:	614c      	str	r4, [r1, #20]
   83b10:	610c      	str	r4, [r1, #16]
   83b12:	60e5      	str	r5, [r4, #12]
   83b14:	60a5      	str	r5, [r4, #8]
   83b16:	6062      	str	r2, [r4, #4]
   83b18:	50e3      	str	r3, [r4, r3]
   83b1a:	e788      	b.n	83a2e <_free_r+0x86>
   83b1c:	2a54      	cmp	r2, #84	; 0x54
   83b1e:	d806      	bhi.n	83b2e <_free_r+0x186>
   83b20:	0b1a      	lsrs	r2, r3, #12
   83b22:	f102 076f 	add.w	r7, r2, #111	; 0x6f
   83b26:	007f      	lsls	r7, r7, #1
   83b28:	f102 056e 	add.w	r5, r2, #110	; 0x6e
   83b2c:	e78e      	b.n	83a4c <_free_r+0xa4>
   83b2e:	f5b2 7faa 	cmp.w	r2, #340	; 0x154
   83b32:	d806      	bhi.n	83b42 <_free_r+0x19a>
   83b34:	0bda      	lsrs	r2, r3, #15
   83b36:	f102 0778 	add.w	r7, r2, #120	; 0x78
   83b3a:	007f      	lsls	r7, r7, #1
   83b3c:	f102 0577 	add.w	r5, r2, #119	; 0x77
   83b40:	e784      	b.n	83a4c <_free_r+0xa4>
   83b42:	f240 5054 	movw	r0, #1364	; 0x554
   83b46:	4282      	cmp	r2, r0
   83b48:	d806      	bhi.n	83b58 <_free_r+0x1b0>
   83b4a:	0c9a      	lsrs	r2, r3, #18
   83b4c:	f102 077d 	add.w	r7, r2, #125	; 0x7d
   83b50:	007f      	lsls	r7, r7, #1
   83b52:	f102 057c 	add.w	r5, r2, #124	; 0x7c
   83b56:	e779      	b.n	83a4c <_free_r+0xa4>
   83b58:	27fe      	movs	r7, #254	; 0xfe
   83b5a:	257e      	movs	r5, #126	; 0x7e
   83b5c:	e776      	b.n	83a4c <_free_r+0xa4>
   83b5e:	f043 0201 	orr.w	r2, r3, #1
   83b62:	6062      	str	r2, [r4, #4]
   83b64:	50e3      	str	r3, [r4, r3]
   83b66:	e762      	b.n	83a2e <_free_r+0x86>
   83b68:	20000598 	.word	0x20000598
   83b6c:	200005a0 	.word	0x200005a0
   83b70:	200009a0 	.word	0x200009a0
   83b74:	20000c7c 	.word	0x20000c7c

00083b78 <__sfvwrite_r>:
   83b78:	6893      	ldr	r3, [r2, #8]
   83b7a:	2b00      	cmp	r3, #0
   83b7c:	f000 80ab 	beq.w	83cd6 <__sfvwrite_r+0x15e>
   83b80:	e92d 4ff0 	stmdb	sp!, {r4, r5, r6, r7, r8, r9, sl, fp, lr}
   83b84:	898b      	ldrh	r3, [r1, #12]
   83b86:	b085      	sub	sp, #20
   83b88:	460c      	mov	r4, r1
   83b8a:	0719      	lsls	r1, r3, #28
   83b8c:	9002      	str	r0, [sp, #8]
   83b8e:	4616      	mov	r6, r2
   83b90:	d528      	bpl.n	83be4 <__sfvwrite_r+0x6c>
   83b92:	6922      	ldr	r2, [r4, #16]
   83b94:	b332      	cbz	r2, 83be4 <__sfvwrite_r+0x6c>
   83b96:	f003 0802 	and.w	r8, r3, #2
   83b9a:	fa1f f088 	uxth.w	r0, r8
   83b9e:	6835      	ldr	r5, [r6, #0]
   83ba0:	b378      	cbz	r0, 83c02 <__sfvwrite_r+0x8a>
   83ba2:	f04f 0900 	mov.w	r9, #0
   83ba6:	46c8      	mov	r8, r9
   83ba8:	f8df a2d0 	ldr.w	sl, [pc, #720]	; 83e7c <__sfvwrite_r+0x304>
   83bac:	f1b8 0f00 	cmp.w	r8, #0
   83bb0:	f000 808b 	beq.w	83cca <__sfvwrite_r+0x152>
   83bb4:	45d0      	cmp	r8, sl
   83bb6:	4643      	mov	r3, r8
   83bb8:	464a      	mov	r2, r9
   83bba:	bf28      	it	cs
   83bbc:	4653      	movcs	r3, sl
   83bbe:	69e1      	ldr	r1, [r4, #28]
   83bc0:	9802      	ldr	r0, [sp, #8]
   83bc2:	6a67      	ldr	r7, [r4, #36]	; 0x24
   83bc4:	47b8      	blx	r7
   83bc6:	2800      	cmp	r0, #0
   83bc8:	f340 80a5 	ble.w	83d16 <__sfvwrite_r+0x19e>
   83bcc:	68b3      	ldr	r3, [r6, #8]
   83bce:	4481      	add	r9, r0
   83bd0:	1a1b      	subs	r3, r3, r0
   83bd2:	ebc0 0808 	rsb	r8, r0, r8
   83bd6:	60b3      	str	r3, [r6, #8]
   83bd8:	2b00      	cmp	r3, #0
   83bda:	d1e7      	bne.n	83bac <__sfvwrite_r+0x34>
   83bdc:	2000      	movs	r0, #0
   83bde:	b005      	add	sp, #20
   83be0:	e8bd 8ff0 	ldmia.w	sp!, {r4, r5, r6, r7, r8, r9, sl, fp, pc}
   83be4:	4621      	mov	r1, r4
   83be6:	9802      	ldr	r0, [sp, #8]
   83be8:	f7ff fc6a 	bl	834c0 <__swsetup_r>
   83bec:	2800      	cmp	r0, #0
   83bee:	f040 813c 	bne.w	83e6a <__sfvwrite_r+0x2f2>
   83bf2:	89a3      	ldrh	r3, [r4, #12]
   83bf4:	6835      	ldr	r5, [r6, #0]
   83bf6:	f003 0802 	and.w	r8, r3, #2
   83bfa:	fa1f f088 	uxth.w	r0, r8
   83bfe:	2800      	cmp	r0, #0
   83c00:	d1cf      	bne.n	83ba2 <__sfvwrite_r+0x2a>
   83c02:	f013 0901 	ands.w	r9, r3, #1
   83c06:	f040 8090 	bne.w	83d2a <__sfvwrite_r+0x1b2>
   83c0a:	464f      	mov	r7, r9
   83c0c:	9601      	str	r6, [sp, #4]
   83c0e:	2f00      	cmp	r7, #0
   83c10:	d056      	beq.n	83cc0 <__sfvwrite_r+0x148>
   83c12:	059a      	lsls	r2, r3, #22
   83c14:	f8d4 8008 	ldr.w	r8, [r4, #8]
   83c18:	d55f      	bpl.n	83cda <__sfvwrite_r+0x162>
   83c1a:	4547      	cmp	r7, r8
   83c1c:	46c2      	mov	sl, r8
   83c1e:	f0c0 80bf 	bcc.w	83da0 <__sfvwrite_r+0x228>
   83c22:	f413 6f90 	tst.w	r3, #1152	; 0x480
   83c26:	f000 80bd 	beq.w	83da4 <__sfvwrite_r+0x22c>
   83c2a:	6962      	ldr	r2, [r4, #20]
   83c2c:	6820      	ldr	r0, [r4, #0]
   83c2e:	6921      	ldr	r1, [r4, #16]
   83c30:	eb02 0842 	add.w	r8, r2, r2, lsl #1
   83c34:	ebc1 0a00 	rsb	sl, r1, r0
   83c38:	eb08 78d8 	add.w	r8, r8, r8, lsr #31
   83c3c:	f10a 0001 	add.w	r0, sl, #1
   83c40:	ea4f 0868 	mov.w	r8, r8, asr #1
   83c44:	4438      	add	r0, r7
   83c46:	4540      	cmp	r0, r8
   83c48:	4642      	mov	r2, r8
   83c4a:	bf84      	itt	hi
   83c4c:	4680      	movhi	r8, r0
   83c4e:	4642      	movhi	r2, r8
   83c50:	055b      	lsls	r3, r3, #21
   83c52:	f140 80f2 	bpl.w	83e3a <__sfvwrite_r+0x2c2>
   83c56:	4611      	mov	r1, r2
   83c58:	9802      	ldr	r0, [sp, #8]
   83c5a:	f000 f9bf 	bl	83fdc <_malloc_r>
   83c5e:	4683      	mov	fp, r0
   83c60:	2800      	cmp	r0, #0
   83c62:	f000 8105 	beq.w	83e70 <__sfvwrite_r+0x2f8>
   83c66:	4652      	mov	r2, sl
   83c68:	6921      	ldr	r1, [r4, #16]
   83c6a:	f000 fca9 	bl	845c0 <memcpy>
   83c6e:	89a3      	ldrh	r3, [r4, #12]
   83c70:	f423 6390 	bic.w	r3, r3, #1152	; 0x480
   83c74:	f043 0380 	orr.w	r3, r3, #128	; 0x80
   83c78:	81a3      	strh	r3, [r4, #12]
   83c7a:	ebca 0308 	rsb	r3, sl, r8
   83c7e:	eb0b 000a 	add.w	r0, fp, sl
   83c82:	f8c4 8014 	str.w	r8, [r4, #20]
   83c86:	46ba      	mov	sl, r7
   83c88:	46b8      	mov	r8, r7
   83c8a:	f8c4 b010 	str.w	fp, [r4, #16]
   83c8e:	6020      	str	r0, [r4, #0]
   83c90:	60a3      	str	r3, [r4, #8]
   83c92:	4652      	mov	r2, sl
   83c94:	4649      	mov	r1, r9
   83c96:	f000 fd09 	bl	846ac <memmove>
   83c9a:	68a0      	ldr	r0, [r4, #8]
   83c9c:	6823      	ldr	r3, [r4, #0]
   83c9e:	ebc8 0000 	rsb	r0, r8, r0
   83ca2:	60a0      	str	r0, [r4, #8]
   83ca4:	4638      	mov	r0, r7
   83ca6:	4453      	add	r3, sl
   83ca8:	6023      	str	r3, [r4, #0]
   83caa:	9a01      	ldr	r2, [sp, #4]
   83cac:	4481      	add	r9, r0
   83cae:	6893      	ldr	r3, [r2, #8]
   83cb0:	1a3f      	subs	r7, r7, r0
   83cb2:	1a1b      	subs	r3, r3, r0
   83cb4:	6093      	str	r3, [r2, #8]
   83cb6:	2b00      	cmp	r3, #0
   83cb8:	d090      	beq.n	83bdc <__sfvwrite_r+0x64>
   83cba:	89a3      	ldrh	r3, [r4, #12]
   83cbc:	2f00      	cmp	r7, #0
   83cbe:	d1a8      	bne.n	83c12 <__sfvwrite_r+0x9a>
   83cc0:	f8d5 9000 	ldr.w	r9, [r5]
   83cc4:	686f      	ldr	r7, [r5, #4]
   83cc6:	3508      	adds	r5, #8
   83cc8:	e7a1      	b.n	83c0e <__sfvwrite_r+0x96>
   83cca:	f8d5 9000 	ldr.w	r9, [r5]
   83cce:	f8d5 8004 	ldr.w	r8, [r5, #4]
   83cd2:	3508      	adds	r5, #8
   83cd4:	e76a      	b.n	83bac <__sfvwrite_r+0x34>
   83cd6:	2000      	movs	r0, #0
   83cd8:	4770      	bx	lr
   83cda:	6820      	ldr	r0, [r4, #0]
   83cdc:	6923      	ldr	r3, [r4, #16]
   83cde:	4298      	cmp	r0, r3
   83ce0:	d803      	bhi.n	83cea <__sfvwrite_r+0x172>
   83ce2:	6962      	ldr	r2, [r4, #20]
   83ce4:	4297      	cmp	r7, r2
   83ce6:	f080 8083 	bcs.w	83df0 <__sfvwrite_r+0x278>
   83cea:	45b8      	cmp	r8, r7
   83cec:	bf28      	it	cs
   83cee:	46b8      	movcs	r8, r7
   83cf0:	4649      	mov	r1, r9
   83cf2:	4642      	mov	r2, r8
   83cf4:	f000 fcda 	bl	846ac <memmove>
   83cf8:	68a3      	ldr	r3, [r4, #8]
   83cfa:	6822      	ldr	r2, [r4, #0]
   83cfc:	ebc8 0303 	rsb	r3, r8, r3
   83d00:	4442      	add	r2, r8
   83d02:	60a3      	str	r3, [r4, #8]
   83d04:	6022      	str	r2, [r4, #0]
   83d06:	2b00      	cmp	r3, #0
   83d08:	d148      	bne.n	83d9c <__sfvwrite_r+0x224>
   83d0a:	4621      	mov	r1, r4
   83d0c:	9802      	ldr	r0, [sp, #8]
   83d0e:	f7ff fcef 	bl	836f0 <_fflush_r>
   83d12:	2800      	cmp	r0, #0
   83d14:	d042      	beq.n	83d9c <__sfvwrite_r+0x224>
   83d16:	f9b4 300c 	ldrsh.w	r3, [r4, #12]
   83d1a:	f043 0340 	orr.w	r3, r3, #64	; 0x40
   83d1e:	f04f 30ff 	mov.w	r0, #4294967295
   83d22:	81a3      	strh	r3, [r4, #12]
   83d24:	b005      	add	sp, #20
   83d26:	e8bd 8ff0 	ldmia.w	sp!, {r4, r5, r6, r7, r8, r9, sl, fp, pc}
   83d2a:	4680      	mov	r8, r0
   83d2c:	4682      	mov	sl, r0
   83d2e:	4681      	mov	r9, r0
   83d30:	9001      	str	r0, [sp, #4]
   83d32:	f1b9 0f00 	cmp.w	r9, #0
   83d36:	d029      	beq.n	83d8c <__sfvwrite_r+0x214>
   83d38:	9b01      	ldr	r3, [sp, #4]
   83d3a:	2b00      	cmp	r3, #0
   83d3c:	d04b      	beq.n	83dd6 <__sfvwrite_r+0x25e>
   83d3e:	45c8      	cmp	r8, r9
   83d40:	46c3      	mov	fp, r8
   83d42:	bf28      	it	cs
   83d44:	46cb      	movcs	fp, r9
   83d46:	6820      	ldr	r0, [r4, #0]
   83d48:	6923      	ldr	r3, [r4, #16]
   83d4a:	465f      	mov	r7, fp
   83d4c:	4298      	cmp	r0, r3
   83d4e:	6962      	ldr	r2, [r4, #20]
   83d50:	d903      	bls.n	83d5a <__sfvwrite_r+0x1e2>
   83d52:	68a3      	ldr	r3, [r4, #8]
   83d54:	4413      	add	r3, r2
   83d56:	459b      	cmp	fp, r3
   83d58:	dc5c      	bgt.n	83e14 <__sfvwrite_r+0x29c>
   83d5a:	4593      	cmp	fp, r2
   83d5c:	db24      	blt.n	83da8 <__sfvwrite_r+0x230>
   83d5e:	4613      	mov	r3, r2
   83d60:	6a67      	ldr	r7, [r4, #36]	; 0x24
   83d62:	4652      	mov	r2, sl
   83d64:	69e1      	ldr	r1, [r4, #28]
   83d66:	9802      	ldr	r0, [sp, #8]
   83d68:	47b8      	blx	r7
   83d6a:	1e07      	subs	r7, r0, #0
   83d6c:	ddd3      	ble.n	83d16 <__sfvwrite_r+0x19e>
   83d6e:	ebb8 0807 	subs.w	r8, r8, r7
   83d72:	d027      	beq.n	83dc4 <__sfvwrite_r+0x24c>
   83d74:	68b3      	ldr	r3, [r6, #8]
   83d76:	44ba      	add	sl, r7
   83d78:	1bdb      	subs	r3, r3, r7
   83d7a:	ebc7 0909 	rsb	r9, r7, r9
   83d7e:	60b3      	str	r3, [r6, #8]
   83d80:	2b00      	cmp	r3, #0
   83d82:	f43f af2b 	beq.w	83bdc <__sfvwrite_r+0x64>
   83d86:	f1b9 0f00 	cmp.w	r9, #0
   83d8a:	d1d5      	bne.n	83d38 <__sfvwrite_r+0x1c0>
   83d8c:	2300      	movs	r3, #0
   83d8e:	f8d5 a000 	ldr.w	sl, [r5]
   83d92:	f8d5 9004 	ldr.w	r9, [r5, #4]
   83d96:	9301      	str	r3, [sp, #4]
   83d98:	3508      	adds	r5, #8
   83d9a:	e7ca      	b.n	83d32 <__sfvwrite_r+0x1ba>
   83d9c:	4640      	mov	r0, r8
   83d9e:	e784      	b.n	83caa <__sfvwrite_r+0x132>
   83da0:	46b8      	mov	r8, r7
   83da2:	46ba      	mov	sl, r7
   83da4:	6820      	ldr	r0, [r4, #0]
   83da6:	e774      	b.n	83c92 <__sfvwrite_r+0x11a>
   83da8:	465a      	mov	r2, fp
   83daa:	4651      	mov	r1, sl
   83dac:	f000 fc7e 	bl	846ac <memmove>
   83db0:	68a2      	ldr	r2, [r4, #8]
   83db2:	6823      	ldr	r3, [r4, #0]
   83db4:	ebcb 0202 	rsb	r2, fp, r2
   83db8:	445b      	add	r3, fp
   83dba:	ebb8 0807 	subs.w	r8, r8, r7
   83dbe:	60a2      	str	r2, [r4, #8]
   83dc0:	6023      	str	r3, [r4, #0]
   83dc2:	d1d7      	bne.n	83d74 <__sfvwrite_r+0x1fc>
   83dc4:	4621      	mov	r1, r4
   83dc6:	9802      	ldr	r0, [sp, #8]
   83dc8:	f7ff fc92 	bl	836f0 <_fflush_r>
   83dcc:	2800      	cmp	r0, #0
   83dce:	d1a2      	bne.n	83d16 <__sfvwrite_r+0x19e>
   83dd0:	f8cd 8004 	str.w	r8, [sp, #4]
   83dd4:	e7ce      	b.n	83d74 <__sfvwrite_r+0x1fc>
   83dd6:	464a      	mov	r2, r9
   83dd8:	210a      	movs	r1, #10
   83dda:	4650      	mov	r0, sl
   83ddc:	f000 fbaa 	bl	84534 <memchr>
   83de0:	2800      	cmp	r0, #0
   83de2:	d03d      	beq.n	83e60 <__sfvwrite_r+0x2e8>
   83de4:	3001      	adds	r0, #1
   83de6:	2301      	movs	r3, #1
   83de8:	ebca 0800 	rsb	r8, sl, r0
   83dec:	9301      	str	r3, [sp, #4]
   83dee:	e7a6      	b.n	83d3e <__sfvwrite_r+0x1c6>
   83df0:	f06f 4300 	mvn.w	r3, #2147483648	; 0x80000000
   83df4:	42bb      	cmp	r3, r7
   83df6:	bf28      	it	cs
   83df8:	463b      	movcs	r3, r7
   83dfa:	fb93 f3f2 	sdiv	r3, r3, r2
   83dfe:	69e1      	ldr	r1, [r4, #28]
   83e00:	fb02 f303 	mul.w	r3, r2, r3
   83e04:	9802      	ldr	r0, [sp, #8]
   83e06:	464a      	mov	r2, r9
   83e08:	6a66      	ldr	r6, [r4, #36]	; 0x24
   83e0a:	47b0      	blx	r6
   83e0c:	2800      	cmp	r0, #0
   83e0e:	f73f af4c 	bgt.w	83caa <__sfvwrite_r+0x132>
   83e12:	e780      	b.n	83d16 <__sfvwrite_r+0x19e>
   83e14:	461a      	mov	r2, r3
   83e16:	4651      	mov	r1, sl
   83e18:	9303      	str	r3, [sp, #12]
   83e1a:	f000 fc47 	bl	846ac <memmove>
   83e1e:	6822      	ldr	r2, [r4, #0]
   83e20:	9b03      	ldr	r3, [sp, #12]
   83e22:	4621      	mov	r1, r4
   83e24:	441a      	add	r2, r3
   83e26:	6022      	str	r2, [r4, #0]
   83e28:	9802      	ldr	r0, [sp, #8]
   83e2a:	f7ff fc61 	bl	836f0 <_fflush_r>
   83e2e:	9b03      	ldr	r3, [sp, #12]
   83e30:	2800      	cmp	r0, #0
   83e32:	f47f af70 	bne.w	83d16 <__sfvwrite_r+0x19e>
   83e36:	461f      	mov	r7, r3
   83e38:	e799      	b.n	83d6e <__sfvwrite_r+0x1f6>
   83e3a:	9802      	ldr	r0, [sp, #8]
   83e3c:	f000 fc9e 	bl	8477c <_realloc_r>
   83e40:	4683      	mov	fp, r0
   83e42:	2800      	cmp	r0, #0
   83e44:	f47f af19 	bne.w	83c7a <__sfvwrite_r+0x102>
   83e48:	9d02      	ldr	r5, [sp, #8]
   83e4a:	6921      	ldr	r1, [r4, #16]
   83e4c:	4628      	mov	r0, r5
   83e4e:	f7ff fdab 	bl	839a8 <_free_r>
   83e52:	f9b4 300c 	ldrsh.w	r3, [r4, #12]
   83e56:	220c      	movs	r2, #12
   83e58:	f023 0380 	bic.w	r3, r3, #128	; 0x80
   83e5c:	602a      	str	r2, [r5, #0]
   83e5e:	e75c      	b.n	83d1a <__sfvwrite_r+0x1a2>
   83e60:	2301      	movs	r3, #1
   83e62:	f109 0801 	add.w	r8, r9, #1
   83e66:	9301      	str	r3, [sp, #4]
   83e68:	e769      	b.n	83d3e <__sfvwrite_r+0x1c6>
   83e6a:	f04f 30ff 	mov.w	r0, #4294967295
   83e6e:	e6b6      	b.n	83bde <__sfvwrite_r+0x66>
   83e70:	9a02      	ldr	r2, [sp, #8]
   83e72:	230c      	movs	r3, #12
   83e74:	6013      	str	r3, [r2, #0]
   83e76:	f9b4 300c 	ldrsh.w	r3, [r4, #12]
   83e7a:	e74e      	b.n	83d1a <__sfvwrite_r+0x1a2>
   83e7c:	7ffffc00 	.word	0x7ffffc00

00083e80 <_fwalk_reent>:
   83e80:	e92d 43f8 	stmdb	sp!, {r3, r4, r5, r6, r7, r8, r9, lr}
   83e84:	f510 7638 	adds.w	r6, r0, #736	; 0x2e0
   83e88:	d01e      	beq.n	83ec8 <_fwalk_reent+0x48>
   83e8a:	4688      	mov	r8, r1
   83e8c:	4607      	mov	r7, r0
   83e8e:	f04f 0900 	mov.w	r9, #0
   83e92:	6875      	ldr	r5, [r6, #4]
   83e94:	68b4      	ldr	r4, [r6, #8]
   83e96:	3d01      	subs	r5, #1
   83e98:	d410      	bmi.n	83ebc <_fwalk_reent+0x3c>
   83e9a:	89a3      	ldrh	r3, [r4, #12]
   83e9c:	3d01      	subs	r5, #1
   83e9e:	2b01      	cmp	r3, #1
   83ea0:	d908      	bls.n	83eb4 <_fwalk_reent+0x34>
   83ea2:	f9b4 300e 	ldrsh.w	r3, [r4, #14]
   83ea6:	3301      	adds	r3, #1
   83ea8:	d004      	beq.n	83eb4 <_fwalk_reent+0x34>
   83eaa:	4621      	mov	r1, r4
   83eac:	4638      	mov	r0, r7
   83eae:	47c0      	blx	r8
   83eb0:	ea49 0900 	orr.w	r9, r9, r0
   83eb4:	1c6b      	adds	r3, r5, #1
   83eb6:	f104 0468 	add.w	r4, r4, #104	; 0x68
   83eba:	d1ee      	bne.n	83e9a <_fwalk_reent+0x1a>
   83ebc:	6836      	ldr	r6, [r6, #0]
   83ebe:	2e00      	cmp	r6, #0
   83ec0:	d1e7      	bne.n	83e92 <_fwalk_reent+0x12>
   83ec2:	4648      	mov	r0, r9
   83ec4:	e8bd 83f8 	ldmia.w	sp!, {r3, r4, r5, r6, r7, r8, r9, pc}
   83ec8:	46b1      	mov	r9, r6
   83eca:	4648      	mov	r0, r9
   83ecc:	e8bd 83f8 	ldmia.w	sp!, {r3, r4, r5, r6, r7, r8, r9, pc}

00083ed0 <__locale_charset>:
   83ed0:	4800      	ldr	r0, [pc, #0]	; (83ed4 <__locale_charset+0x4>)
   83ed2:	4770      	bx	lr
   83ed4:	20000574 	.word	0x20000574

00083ed8 <__locale_mb_cur_max>:
   83ed8:	4b01      	ldr	r3, [pc, #4]	; (83ee0 <__locale_mb_cur_max+0x8>)
   83eda:	6818      	ldr	r0, [r3, #0]
   83edc:	4770      	bx	lr
   83ede:	bf00      	nop
   83ee0:	20000594 	.word	0x20000594

00083ee4 <__swhatbuf_r>:
   83ee4:	b570      	push	{r4, r5, r6, lr}
   83ee6:	460e      	mov	r6, r1
   83ee8:	f9b1 100e 	ldrsh.w	r1, [r1, #14]
   83eec:	b090      	sub	sp, #64	; 0x40
   83eee:	2900      	cmp	r1, #0
   83ef0:	4614      	mov	r4, r2
   83ef2:	461d      	mov	r5, r3
   83ef4:	db14      	blt.n	83f20 <__swhatbuf_r+0x3c>
   83ef6:	aa01      	add	r2, sp, #4
   83ef8:	f000 ffca 	bl	84e90 <_fstat_r>
   83efc:	2800      	cmp	r0, #0
   83efe:	db0f      	blt.n	83f20 <__swhatbuf_r+0x3c>
   83f00:	9a02      	ldr	r2, [sp, #8]
   83f02:	f44f 6380 	mov.w	r3, #1024	; 0x400
   83f06:	f402 4270 	and.w	r2, r2, #61440	; 0xf000
   83f0a:	f5a2 5200 	sub.w	r2, r2, #8192	; 0x2000
   83f0e:	fab2 f282 	clz	r2, r2
   83f12:	f44f 6000 	mov.w	r0, #2048	; 0x800
   83f16:	0952      	lsrs	r2, r2, #5
   83f18:	602a      	str	r2, [r5, #0]
   83f1a:	6023      	str	r3, [r4, #0]
   83f1c:	b010      	add	sp, #64	; 0x40
   83f1e:	bd70      	pop	{r4, r5, r6, pc}
   83f20:	89b2      	ldrh	r2, [r6, #12]
   83f22:	2000      	movs	r0, #0
   83f24:	f002 0280 	and.w	r2, r2, #128	; 0x80
   83f28:	b292      	uxth	r2, r2
   83f2a:	6028      	str	r0, [r5, #0]
   83f2c:	b11a      	cbz	r2, 83f36 <__swhatbuf_r+0x52>
   83f2e:	2340      	movs	r3, #64	; 0x40
   83f30:	6023      	str	r3, [r4, #0]
   83f32:	b010      	add	sp, #64	; 0x40
   83f34:	bd70      	pop	{r4, r5, r6, pc}
   83f36:	4610      	mov	r0, r2
   83f38:	f44f 6380 	mov.w	r3, #1024	; 0x400
   83f3c:	6023      	str	r3, [r4, #0]
   83f3e:	b010      	add	sp, #64	; 0x40
   83f40:	bd70      	pop	{r4, r5, r6, pc}
   83f42:	bf00      	nop

00083f44 <__smakebuf_r>:
   83f44:	898a      	ldrh	r2, [r1, #12]
   83f46:	460b      	mov	r3, r1
   83f48:	0792      	lsls	r2, r2, #30
   83f4a:	d506      	bpl.n	83f5a <__smakebuf_r+0x16>
   83f4c:	f101 0243 	add.w	r2, r1, #67	; 0x43
   83f50:	2101      	movs	r1, #1
   83f52:	601a      	str	r2, [r3, #0]
   83f54:	611a      	str	r2, [r3, #16]
   83f56:	6159      	str	r1, [r3, #20]
   83f58:	4770      	bx	lr
   83f5a:	b5f0      	push	{r4, r5, r6, r7, lr}
   83f5c:	b083      	sub	sp, #12
   83f5e:	ab01      	add	r3, sp, #4
   83f60:	466a      	mov	r2, sp
   83f62:	460c      	mov	r4, r1
   83f64:	4605      	mov	r5, r0
   83f66:	f7ff ffbd 	bl	83ee4 <__swhatbuf_r>
   83f6a:	9900      	ldr	r1, [sp, #0]
   83f6c:	4606      	mov	r6, r0
   83f6e:	4628      	mov	r0, r5
   83f70:	f000 f834 	bl	83fdc <_malloc_r>
   83f74:	f9b4 300c 	ldrsh.w	r3, [r4, #12]
   83f78:	b1d0      	cbz	r0, 83fb0 <__smakebuf_r+0x6c>
   83f7a:	e89d 0006 	ldmia.w	sp, {r1, r2}
   83f7e:	4f12      	ldr	r7, [pc, #72]	; (83fc8 <__smakebuf_r+0x84>)
   83f80:	f043 0380 	orr.w	r3, r3, #128	; 0x80
   83f84:	63ef      	str	r7, [r5, #60]	; 0x3c
   83f86:	81a3      	strh	r3, [r4, #12]
   83f88:	6020      	str	r0, [r4, #0]
   83f8a:	6120      	str	r0, [r4, #16]
   83f8c:	6161      	str	r1, [r4, #20]
   83f8e:	b91a      	cbnz	r2, 83f98 <__smakebuf_r+0x54>
   83f90:	4333      	orrs	r3, r6
   83f92:	81a3      	strh	r3, [r4, #12]
   83f94:	b003      	add	sp, #12
   83f96:	bdf0      	pop	{r4, r5, r6, r7, pc}
   83f98:	4628      	mov	r0, r5
   83f9a:	f9b4 100e 	ldrsh.w	r1, [r4, #14]
   83f9e:	f000 ff8b 	bl	84eb8 <_isatty_r>
   83fa2:	f9b4 300c 	ldrsh.w	r3, [r4, #12]
   83fa6:	2800      	cmp	r0, #0
   83fa8:	d0f2      	beq.n	83f90 <__smakebuf_r+0x4c>
   83faa:	f043 0301 	orr.w	r3, r3, #1
   83fae:	e7ef      	b.n	83f90 <__smakebuf_r+0x4c>
   83fb0:	059a      	lsls	r2, r3, #22
   83fb2:	d4ef      	bmi.n	83f94 <__smakebuf_r+0x50>
   83fb4:	f104 0243 	add.w	r2, r4, #67	; 0x43
   83fb8:	f043 0302 	orr.w	r3, r3, #2
   83fbc:	2101      	movs	r1, #1
   83fbe:	81a3      	strh	r3, [r4, #12]
   83fc0:	6022      	str	r2, [r4, #0]
   83fc2:	6122      	str	r2, [r4, #16]
   83fc4:	6161      	str	r1, [r4, #20]
   83fc6:	e7e5      	b.n	83f94 <__smakebuf_r+0x50>
   83fc8:	0008371d 	.word	0x0008371d

00083fcc <malloc>:
   83fcc:	4b02      	ldr	r3, [pc, #8]	; (83fd8 <malloc+0xc>)
   83fce:	4601      	mov	r1, r0
   83fd0:	6818      	ldr	r0, [r3, #0]
   83fd2:	f000 b803 	b.w	83fdc <_malloc_r>
   83fd6:	bf00      	nop
   83fd8:	20000570 	.word	0x20000570

00083fdc <_malloc_r>:
   83fdc:	e92d 4ff0 	stmdb	sp!, {r4, r5, r6, r7, r8, r9, sl, fp, lr}
   83fe0:	f101 050b 	add.w	r5, r1, #11
   83fe4:	2d16      	cmp	r5, #22
   83fe6:	b083      	sub	sp, #12
   83fe8:	4606      	mov	r6, r0
   83fea:	f240 80a0 	bls.w	8412e <_malloc_r+0x152>
   83fee:	f035 0507 	bics.w	r5, r5, #7
   83ff2:	f100 80c0 	bmi.w	84176 <_malloc_r+0x19a>
   83ff6:	42a9      	cmp	r1, r5
   83ff8:	f200 80bd 	bhi.w	84176 <_malloc_r+0x19a>
   83ffc:	f000 fbba 	bl	84774 <__malloc_lock>
   84000:	f5b5 7ffc 	cmp.w	r5, #504	; 0x1f8
   84004:	f0c0 8290 	bcc.w	84528 <_malloc_r+0x54c>
   84008:	0a6b      	lsrs	r3, r5, #9
   8400a:	f000 80bb 	beq.w	84184 <_malloc_r+0x1a8>
   8400e:	2b04      	cmp	r3, #4
   84010:	f200 8177 	bhi.w	84302 <_malloc_r+0x326>
   84014:	09a8      	lsrs	r0, r5, #6
   84016:	f100 0e39 	add.w	lr, r0, #57	; 0x39
   8401a:	ea4f 014e 	mov.w	r1, lr, lsl #1
   8401e:	3038      	adds	r0, #56	; 0x38
   84020:	4fbe      	ldr	r7, [pc, #760]	; (8431c <_malloc_r+0x340>)
   84022:	eb07 0181 	add.w	r1, r7, r1, lsl #2
   84026:	684c      	ldr	r4, [r1, #4]
   84028:	3908      	subs	r1, #8
   8402a:	42a1      	cmp	r1, r4
   8402c:	d107      	bne.n	8403e <_malloc_r+0x62>
   8402e:	e0ae      	b.n	8418e <_malloc_r+0x1b2>
   84030:	2a00      	cmp	r2, #0
   84032:	f280 80ae 	bge.w	84192 <_malloc_r+0x1b6>
   84036:	68e4      	ldr	r4, [r4, #12]
   84038:	42a1      	cmp	r1, r4
   8403a:	f000 80a8 	beq.w	8418e <_malloc_r+0x1b2>
   8403e:	6863      	ldr	r3, [r4, #4]
   84040:	f023 0303 	bic.w	r3, r3, #3
   84044:	1b5a      	subs	r2, r3, r5
   84046:	2a0f      	cmp	r2, #15
   84048:	ddf2      	ble.n	84030 <_malloc_r+0x54>
   8404a:	49b4      	ldr	r1, [pc, #720]	; (8431c <_malloc_r+0x340>)
   8404c:	693c      	ldr	r4, [r7, #16]
   8404e:	f101 0e08 	add.w	lr, r1, #8
   84052:	4574      	cmp	r4, lr
   84054:	f000 81a8 	beq.w	843a8 <_malloc_r+0x3cc>
   84058:	6863      	ldr	r3, [r4, #4]
   8405a:	f023 0303 	bic.w	r3, r3, #3
   8405e:	1b5a      	subs	r2, r3, r5
   84060:	2a0f      	cmp	r2, #15
   84062:	f300 818e 	bgt.w	84382 <_malloc_r+0x3a6>
   84066:	2a00      	cmp	r2, #0
   84068:	f8c1 e014 	str.w	lr, [r1, #20]
   8406c:	f8c1 e010 	str.w	lr, [r1, #16]
   84070:	f280 8093 	bge.w	8419a <_malloc_r+0x1be>
   84074:	f5b3 7f00 	cmp.w	r3, #512	; 0x200
   84078:	f080 815c 	bcs.w	84334 <_malloc_r+0x358>
   8407c:	08db      	lsrs	r3, r3, #3
   8407e:	684a      	ldr	r2, [r1, #4]
   84080:	ea4f 09a3 	mov.w	r9, r3, asr #2
   84084:	f04f 0c01 	mov.w	ip, #1
   84088:	3301      	adds	r3, #1
   8408a:	f851 8033 	ldr.w	r8, [r1, r3, lsl #3]
   8408e:	fa0c f909 	lsl.w	r9, ip, r9
   84092:	eb01 0cc3 	add.w	ip, r1, r3, lsl #3
   84096:	ea49 0202 	orr.w	r2, r9, r2
   8409a:	f1ac 0c08 	sub.w	ip, ip, #8
   8409e:	f8c4 c00c 	str.w	ip, [r4, #12]
   840a2:	f8c4 8008 	str.w	r8, [r4, #8]
   840a6:	604a      	str	r2, [r1, #4]
   840a8:	f841 4033 	str.w	r4, [r1, r3, lsl #3]
   840ac:	f8c8 400c 	str.w	r4, [r8, #12]
   840b0:	1083      	asrs	r3, r0, #2
   840b2:	2401      	movs	r4, #1
   840b4:	409c      	lsls	r4, r3
   840b6:	4294      	cmp	r4, r2
   840b8:	d87c      	bhi.n	841b4 <_malloc_r+0x1d8>
   840ba:	4214      	tst	r4, r2
   840bc:	d106      	bne.n	840cc <_malloc_r+0xf0>
   840be:	f020 0003 	bic.w	r0, r0, #3
   840c2:	0064      	lsls	r4, r4, #1
   840c4:	4214      	tst	r4, r2
   840c6:	f100 0004 	add.w	r0, r0, #4
   840ca:	d0fa      	beq.n	840c2 <_malloc_r+0xe6>
   840cc:	eb07 09c0 	add.w	r9, r7, r0, lsl #3
   840d0:	46cc      	mov	ip, r9
   840d2:	4680      	mov	r8, r0
   840d4:	f8dc 100c 	ldr.w	r1, [ip, #12]
   840d8:	458c      	cmp	ip, r1
   840da:	d107      	bne.n	840ec <_malloc_r+0x110>
   840dc:	e166      	b.n	843ac <_malloc_r+0x3d0>
   840de:	2a00      	cmp	r2, #0
   840e0:	f280 8174 	bge.w	843cc <_malloc_r+0x3f0>
   840e4:	68c9      	ldr	r1, [r1, #12]
   840e6:	458c      	cmp	ip, r1
   840e8:	f000 8160 	beq.w	843ac <_malloc_r+0x3d0>
   840ec:	684b      	ldr	r3, [r1, #4]
   840ee:	f023 0303 	bic.w	r3, r3, #3
   840f2:	1b5a      	subs	r2, r3, r5
   840f4:	2a0f      	cmp	r2, #15
   840f6:	ddf2      	ble.n	840de <_malloc_r+0x102>
   840f8:	460c      	mov	r4, r1
   840fa:	68cb      	ldr	r3, [r1, #12]
   840fc:	f854 cf08 	ldr.w	ip, [r4, #8]!
   84100:	f045 0801 	orr.w	r8, r5, #1
   84104:	f8c1 8004 	str.w	r8, [r1, #4]
   84108:	440d      	add	r5, r1
   8410a:	f042 0101 	orr.w	r1, r2, #1
   8410e:	f8cc 300c 	str.w	r3, [ip, #12]
   84112:	4630      	mov	r0, r6
   84114:	f8c3 c008 	str.w	ip, [r3, #8]
   84118:	617d      	str	r5, [r7, #20]
   8411a:	613d      	str	r5, [r7, #16]
   8411c:	f8c5 e00c 	str.w	lr, [r5, #12]
   84120:	f8c5 e008 	str.w	lr, [r5, #8]
   84124:	6069      	str	r1, [r5, #4]
   84126:	50aa      	str	r2, [r5, r2]
   84128:	f000 fb26 	bl	84778 <__malloc_unlock>
   8412c:	e01f      	b.n	8416e <_malloc_r+0x192>
   8412e:	2910      	cmp	r1, #16
   84130:	d821      	bhi.n	84176 <_malloc_r+0x19a>
   84132:	f000 fb1f 	bl	84774 <__malloc_lock>
   84136:	2510      	movs	r5, #16
   84138:	2306      	movs	r3, #6
   8413a:	2002      	movs	r0, #2
   8413c:	4f77      	ldr	r7, [pc, #476]	; (8431c <_malloc_r+0x340>)
   8413e:	eb07 0383 	add.w	r3, r7, r3, lsl #2
   84142:	685c      	ldr	r4, [r3, #4]
   84144:	f1a3 0208 	sub.w	r2, r3, #8
   84148:	4294      	cmp	r4, r2
   8414a:	f000 8138 	beq.w	843be <_malloc_r+0x3e2>
   8414e:	6863      	ldr	r3, [r4, #4]
   84150:	68e1      	ldr	r1, [r4, #12]
   84152:	f023 0303 	bic.w	r3, r3, #3
   84156:	4423      	add	r3, r4
   84158:	685a      	ldr	r2, [r3, #4]
   8415a:	68a5      	ldr	r5, [r4, #8]
   8415c:	f042 0201 	orr.w	r2, r2, #1
   84160:	60e9      	str	r1, [r5, #12]
   84162:	4630      	mov	r0, r6
   84164:	608d      	str	r5, [r1, #8]
   84166:	605a      	str	r2, [r3, #4]
   84168:	f000 fb06 	bl	84778 <__malloc_unlock>
   8416c:	3408      	adds	r4, #8
   8416e:	4620      	mov	r0, r4
   84170:	b003      	add	sp, #12
   84172:	e8bd 8ff0 	ldmia.w	sp!, {r4, r5, r6, r7, r8, r9, sl, fp, pc}
   84176:	2400      	movs	r4, #0
   84178:	4620      	mov	r0, r4
   8417a:	230c      	movs	r3, #12
   8417c:	6033      	str	r3, [r6, #0]
   8417e:	b003      	add	sp, #12
   84180:	e8bd 8ff0 	ldmia.w	sp!, {r4, r5, r6, r7, r8, r9, sl, fp, pc}
   84184:	2180      	movs	r1, #128	; 0x80
   84186:	f04f 0e40 	mov.w	lr, #64	; 0x40
   8418a:	203f      	movs	r0, #63	; 0x3f
   8418c:	e748      	b.n	84020 <_malloc_r+0x44>
   8418e:	4670      	mov	r0, lr
   84190:	e75b      	b.n	8404a <_malloc_r+0x6e>
   84192:	4423      	add	r3, r4
   84194:	685a      	ldr	r2, [r3, #4]
   84196:	68e1      	ldr	r1, [r4, #12]
   84198:	e7df      	b.n	8415a <_malloc_r+0x17e>
   8419a:	4423      	add	r3, r4
   8419c:	685a      	ldr	r2, [r3, #4]
   8419e:	4630      	mov	r0, r6
   841a0:	f042 0201 	orr.w	r2, r2, #1
   841a4:	605a      	str	r2, [r3, #4]
   841a6:	3408      	adds	r4, #8
   841a8:	f000 fae6 	bl	84778 <__malloc_unlock>
   841ac:	4620      	mov	r0, r4
   841ae:	b003      	add	sp, #12
   841b0:	e8bd 8ff0 	ldmia.w	sp!, {r4, r5, r6, r7, r8, r9, sl, fp, pc}
   841b4:	68bc      	ldr	r4, [r7, #8]
   841b6:	6863      	ldr	r3, [r4, #4]
   841b8:	f023 0803 	bic.w	r8, r3, #3
   841bc:	45a8      	cmp	r8, r5
   841be:	d304      	bcc.n	841ca <_malloc_r+0x1ee>
   841c0:	ebc5 0308 	rsb	r3, r5, r8
   841c4:	2b0f      	cmp	r3, #15
   841c6:	f300 808c 	bgt.w	842e2 <_malloc_r+0x306>
   841ca:	4b55      	ldr	r3, [pc, #340]	; (84320 <_malloc_r+0x344>)
   841cc:	f8df 9160 	ldr.w	r9, [pc, #352]	; 84330 <_malloc_r+0x354>
   841d0:	681a      	ldr	r2, [r3, #0]
   841d2:	f8d9 3000 	ldr.w	r3, [r9]
   841d6:	442a      	add	r2, r5
   841d8:	3301      	adds	r3, #1
   841da:	eb04 0a08 	add.w	sl, r4, r8
   841de:	f000 8160 	beq.w	844a2 <_malloc_r+0x4c6>
   841e2:	f502 5280 	add.w	r2, r2, #4096	; 0x1000
   841e6:	320f      	adds	r2, #15
   841e8:	f422 627f 	bic.w	r2, r2, #4080	; 0xff0
   841ec:	f022 020f 	bic.w	r2, r2, #15
   841f0:	4611      	mov	r1, r2
   841f2:	4630      	mov	r0, r6
   841f4:	9201      	str	r2, [sp, #4]
   841f6:	f000 fcab 	bl	84b50 <_sbrk_r>
   841fa:	f1b0 3fff 	cmp.w	r0, #4294967295
   841fe:	4683      	mov	fp, r0
   84200:	9a01      	ldr	r2, [sp, #4]
   84202:	f000 8158 	beq.w	844b6 <_malloc_r+0x4da>
   84206:	4582      	cmp	sl, r0
   84208:	f200 80fc 	bhi.w	84404 <_malloc_r+0x428>
   8420c:	4b45      	ldr	r3, [pc, #276]	; (84324 <_malloc_r+0x348>)
   8420e:	45da      	cmp	sl, fp
   84210:	6819      	ldr	r1, [r3, #0]
   84212:	4411      	add	r1, r2
   84214:	6019      	str	r1, [r3, #0]
   84216:	f000 8153 	beq.w	844c0 <_malloc_r+0x4e4>
   8421a:	f8d9 0000 	ldr.w	r0, [r9]
   8421e:	f8df e110 	ldr.w	lr, [pc, #272]	; 84330 <_malloc_r+0x354>
   84222:	3001      	adds	r0, #1
   84224:	bf1b      	ittet	ne
   84226:	ebca 0a0b 	rsbne	sl, sl, fp
   8422a:	4451      	addne	r1, sl
   8422c:	f8ce b000 	streq.w	fp, [lr]
   84230:	6019      	strne	r1, [r3, #0]
   84232:	f01b 0107 	ands.w	r1, fp, #7
   84236:	f000 8117 	beq.w	84468 <_malloc_r+0x48c>
   8423a:	f1c1 0008 	rsb	r0, r1, #8
   8423e:	f5c1 5180 	rsb	r1, r1, #4096	; 0x1000
   84242:	4483      	add	fp, r0
   84244:	3108      	adds	r1, #8
   84246:	445a      	add	r2, fp
   84248:	f3c2 020b 	ubfx	r2, r2, #0, #12
   8424c:	ebc2 0901 	rsb	r9, r2, r1
   84250:	4649      	mov	r1, r9
   84252:	4630      	mov	r0, r6
   84254:	9301      	str	r3, [sp, #4]
   84256:	f000 fc7b 	bl	84b50 <_sbrk_r>
   8425a:	1c43      	adds	r3, r0, #1
   8425c:	9b01      	ldr	r3, [sp, #4]
   8425e:	f000 813f 	beq.w	844e0 <_malloc_r+0x504>
   84262:	ebcb 0200 	rsb	r2, fp, r0
   84266:	444a      	add	r2, r9
   84268:	f042 0201 	orr.w	r2, r2, #1
   8426c:	6819      	ldr	r1, [r3, #0]
   8426e:	42bc      	cmp	r4, r7
   84270:	4449      	add	r1, r9
   84272:	f8c7 b008 	str.w	fp, [r7, #8]
   84276:	6019      	str	r1, [r3, #0]
   84278:	f8cb 2004 	str.w	r2, [fp, #4]
   8427c:	f8df 90a4 	ldr.w	r9, [pc, #164]	; 84324 <_malloc_r+0x348>
   84280:	d016      	beq.n	842b0 <_malloc_r+0x2d4>
   84282:	f1b8 0f0f 	cmp.w	r8, #15
   84286:	f240 80fd 	bls.w	84484 <_malloc_r+0x4a8>
   8428a:	6862      	ldr	r2, [r4, #4]
   8428c:	f1a8 030c 	sub.w	r3, r8, #12
   84290:	f023 0307 	bic.w	r3, r3, #7
   84294:	f002 0201 	and.w	r2, r2, #1
   84298:	18e0      	adds	r0, r4, r3
   8429a:	f04f 0e05 	mov.w	lr, #5
   8429e:	431a      	orrs	r2, r3
   842a0:	2b0f      	cmp	r3, #15
   842a2:	6062      	str	r2, [r4, #4]
   842a4:	f8c0 e004 	str.w	lr, [r0, #4]
   842a8:	f8c0 e008 	str.w	lr, [r0, #8]
   842ac:	f200 811c 	bhi.w	844e8 <_malloc_r+0x50c>
   842b0:	4b1d      	ldr	r3, [pc, #116]	; (84328 <_malloc_r+0x34c>)
   842b2:	68bc      	ldr	r4, [r7, #8]
   842b4:	681a      	ldr	r2, [r3, #0]
   842b6:	4291      	cmp	r1, r2
   842b8:	bf88      	it	hi
   842ba:	6019      	strhi	r1, [r3, #0]
   842bc:	4b1b      	ldr	r3, [pc, #108]	; (8432c <_malloc_r+0x350>)
   842be:	681a      	ldr	r2, [r3, #0]
   842c0:	4291      	cmp	r1, r2
   842c2:	6862      	ldr	r2, [r4, #4]
   842c4:	bf88      	it	hi
   842c6:	6019      	strhi	r1, [r3, #0]
   842c8:	f022 0203 	bic.w	r2, r2, #3
   842cc:	4295      	cmp	r5, r2
   842ce:	eba2 0305 	sub.w	r3, r2, r5
   842d2:	d801      	bhi.n	842d8 <_malloc_r+0x2fc>
   842d4:	2b0f      	cmp	r3, #15
   842d6:	dc04      	bgt.n	842e2 <_malloc_r+0x306>
   842d8:	4630      	mov	r0, r6
   842da:	f000 fa4d 	bl	84778 <__malloc_unlock>
   842de:	2400      	movs	r4, #0
   842e0:	e745      	b.n	8416e <_malloc_r+0x192>
   842e2:	f045 0201 	orr.w	r2, r5, #1
   842e6:	f043 0301 	orr.w	r3, r3, #1
   842ea:	4425      	add	r5, r4
   842ec:	6062      	str	r2, [r4, #4]
   842ee:	4630      	mov	r0, r6
   842f0:	60bd      	str	r5, [r7, #8]
   842f2:	3408      	adds	r4, #8
   842f4:	606b      	str	r3, [r5, #4]
   842f6:	f000 fa3f 	bl	84778 <__malloc_unlock>
   842fa:	4620      	mov	r0, r4
   842fc:	b003      	add	sp, #12
   842fe:	e8bd 8ff0 	ldmia.w	sp!, {r4, r5, r6, r7, r8, r9, sl, fp, pc}
   84302:	2b14      	cmp	r3, #20
   84304:	d971      	bls.n	843ea <_malloc_r+0x40e>
   84306:	2b54      	cmp	r3, #84	; 0x54
   84308:	f200 80a4 	bhi.w	84454 <_malloc_r+0x478>
   8430c:	0b28      	lsrs	r0, r5, #12
   8430e:	f100 0e6f 	add.w	lr, r0, #111	; 0x6f
   84312:	ea4f 014e 	mov.w	r1, lr, lsl #1
   84316:	306e      	adds	r0, #110	; 0x6e
   84318:	e682      	b.n	84020 <_malloc_r+0x44>
   8431a:	bf00      	nop
   8431c:	20000598 	.word	0x20000598
   84320:	20000c7c 	.word	0x20000c7c
   84324:	20000c80 	.word	0x20000c80
   84328:	20000c78 	.word	0x20000c78
   8432c:	20000c74 	.word	0x20000c74
   84330:	200009a4 	.word	0x200009a4
   84334:	0a5a      	lsrs	r2, r3, #9
   84336:	2a04      	cmp	r2, #4
   84338:	d95e      	bls.n	843f8 <_malloc_r+0x41c>
   8433a:	2a14      	cmp	r2, #20
   8433c:	f200 80b3 	bhi.w	844a6 <_malloc_r+0x4ca>
   84340:	f102 015c 	add.w	r1, r2, #92	; 0x5c
   84344:	0049      	lsls	r1, r1, #1
   84346:	325b      	adds	r2, #91	; 0x5b
   84348:	eb07 0c81 	add.w	ip, r7, r1, lsl #2
   8434c:	f857 1021 	ldr.w	r1, [r7, r1, lsl #2]
   84350:	f1ac 0c08 	sub.w	ip, ip, #8
   84354:	458c      	cmp	ip, r1
   84356:	f8df 81d8 	ldr.w	r8, [pc, #472]	; 84530 <_malloc_r+0x554>
   8435a:	f000 8088 	beq.w	8446e <_malloc_r+0x492>
   8435e:	684a      	ldr	r2, [r1, #4]
   84360:	f022 0203 	bic.w	r2, r2, #3
   84364:	4293      	cmp	r3, r2
   84366:	d202      	bcs.n	8436e <_malloc_r+0x392>
   84368:	6889      	ldr	r1, [r1, #8]
   8436a:	458c      	cmp	ip, r1
   8436c:	d1f7      	bne.n	8435e <_malloc_r+0x382>
   8436e:	f8d1 c00c 	ldr.w	ip, [r1, #12]
   84372:	687a      	ldr	r2, [r7, #4]
   84374:	f8c4 c00c 	str.w	ip, [r4, #12]
   84378:	60a1      	str	r1, [r4, #8]
   8437a:	f8cc 4008 	str.w	r4, [ip, #8]
   8437e:	60cc      	str	r4, [r1, #12]
   84380:	e696      	b.n	840b0 <_malloc_r+0xd4>
   84382:	f045 0701 	orr.w	r7, r5, #1
   84386:	f042 0301 	orr.w	r3, r2, #1
   8438a:	4425      	add	r5, r4
   8438c:	6067      	str	r7, [r4, #4]
   8438e:	4630      	mov	r0, r6
   84390:	614d      	str	r5, [r1, #20]
   84392:	610d      	str	r5, [r1, #16]
   84394:	f8c5 e00c 	str.w	lr, [r5, #12]
   84398:	f8c5 e008 	str.w	lr, [r5, #8]
   8439c:	606b      	str	r3, [r5, #4]
   8439e:	50aa      	str	r2, [r5, r2]
   843a0:	3408      	adds	r4, #8
   843a2:	f000 f9e9 	bl	84778 <__malloc_unlock>
   843a6:	e6e2      	b.n	8416e <_malloc_r+0x192>
   843a8:	684a      	ldr	r2, [r1, #4]
   843aa:	e681      	b.n	840b0 <_malloc_r+0xd4>
   843ac:	f108 0801 	add.w	r8, r8, #1
   843b0:	f018 0f03 	tst.w	r8, #3
   843b4:	f10c 0c08 	add.w	ip, ip, #8
   843b8:	f47f ae8c 	bne.w	840d4 <_malloc_r+0xf8>
   843bc:	e030      	b.n	84420 <_malloc_r+0x444>
   843be:	68dc      	ldr	r4, [r3, #12]
   843c0:	42a3      	cmp	r3, r4
   843c2:	bf08      	it	eq
   843c4:	3002      	addeq	r0, #2
   843c6:	f43f ae40 	beq.w	8404a <_malloc_r+0x6e>
   843ca:	e6c0      	b.n	8414e <_malloc_r+0x172>
   843cc:	460c      	mov	r4, r1
   843ce:	440b      	add	r3, r1
   843d0:	685a      	ldr	r2, [r3, #4]
   843d2:	68c9      	ldr	r1, [r1, #12]
   843d4:	f854 5f08 	ldr.w	r5, [r4, #8]!
   843d8:	f042 0201 	orr.w	r2, r2, #1
   843dc:	605a      	str	r2, [r3, #4]
   843de:	4630      	mov	r0, r6
   843e0:	60e9      	str	r1, [r5, #12]
   843e2:	608d      	str	r5, [r1, #8]
   843e4:	f000 f9c8 	bl	84778 <__malloc_unlock>
   843e8:	e6c1      	b.n	8416e <_malloc_r+0x192>
   843ea:	f103 0e5c 	add.w	lr, r3, #92	; 0x5c
   843ee:	f103 005b 	add.w	r0, r3, #91	; 0x5b
   843f2:	ea4f 014e 	mov.w	r1, lr, lsl #1
   843f6:	e613      	b.n	84020 <_malloc_r+0x44>
   843f8:	099a      	lsrs	r2, r3, #6
   843fa:	f102 0139 	add.w	r1, r2, #57	; 0x39
   843fe:	0049      	lsls	r1, r1, #1
   84400:	3238      	adds	r2, #56	; 0x38
   84402:	e7a1      	b.n	84348 <_malloc_r+0x36c>
   84404:	42bc      	cmp	r4, r7
   84406:	4b4a      	ldr	r3, [pc, #296]	; (84530 <_malloc_r+0x554>)
   84408:	f43f af00 	beq.w	8420c <_malloc_r+0x230>
   8440c:	689c      	ldr	r4, [r3, #8]
   8440e:	6862      	ldr	r2, [r4, #4]
   84410:	f022 0203 	bic.w	r2, r2, #3
   84414:	e75a      	b.n	842cc <_malloc_r+0x2f0>
   84416:	f859 3908 	ldr.w	r3, [r9], #-8
   8441a:	4599      	cmp	r9, r3
   8441c:	f040 8082 	bne.w	84524 <_malloc_r+0x548>
   84420:	f010 0f03 	tst.w	r0, #3
   84424:	f100 30ff 	add.w	r0, r0, #4294967295
   84428:	d1f5      	bne.n	84416 <_malloc_r+0x43a>
   8442a:	687b      	ldr	r3, [r7, #4]
   8442c:	ea23 0304 	bic.w	r3, r3, r4
   84430:	607b      	str	r3, [r7, #4]
   84432:	0064      	lsls	r4, r4, #1
   84434:	429c      	cmp	r4, r3
   84436:	f63f aebd 	bhi.w	841b4 <_malloc_r+0x1d8>
   8443a:	2c00      	cmp	r4, #0
   8443c:	f43f aeba 	beq.w	841b4 <_malloc_r+0x1d8>
   84440:	421c      	tst	r4, r3
   84442:	4640      	mov	r0, r8
   84444:	f47f ae42 	bne.w	840cc <_malloc_r+0xf0>
   84448:	0064      	lsls	r4, r4, #1
   8444a:	421c      	tst	r4, r3
   8444c:	f100 0004 	add.w	r0, r0, #4
   84450:	d0fa      	beq.n	84448 <_malloc_r+0x46c>
   84452:	e63b      	b.n	840cc <_malloc_r+0xf0>
   84454:	f5b3 7faa 	cmp.w	r3, #340	; 0x154
   84458:	d818      	bhi.n	8448c <_malloc_r+0x4b0>
   8445a:	0be8      	lsrs	r0, r5, #15
   8445c:	f100 0e78 	add.w	lr, r0, #120	; 0x78
   84460:	ea4f 014e 	mov.w	r1, lr, lsl #1
   84464:	3077      	adds	r0, #119	; 0x77
   84466:	e5db      	b.n	84020 <_malloc_r+0x44>
   84468:	f44f 5180 	mov.w	r1, #4096	; 0x1000
   8446c:	e6eb      	b.n	84246 <_malloc_r+0x26a>
   8446e:	2101      	movs	r1, #1
   84470:	f8d8 3004 	ldr.w	r3, [r8, #4]
   84474:	1092      	asrs	r2, r2, #2
   84476:	fa01 f202 	lsl.w	r2, r1, r2
   8447a:	431a      	orrs	r2, r3
   8447c:	f8c8 2004 	str.w	r2, [r8, #4]
   84480:	4661      	mov	r1, ip
   84482:	e777      	b.n	84374 <_malloc_r+0x398>
   84484:	2301      	movs	r3, #1
   84486:	f8cb 3004 	str.w	r3, [fp, #4]
   8448a:	e725      	b.n	842d8 <_malloc_r+0x2fc>
   8448c:	f240 5254 	movw	r2, #1364	; 0x554
   84490:	4293      	cmp	r3, r2
   84492:	d820      	bhi.n	844d6 <_malloc_r+0x4fa>
   84494:	0ca8      	lsrs	r0, r5, #18
   84496:	f100 0e7d 	add.w	lr, r0, #125	; 0x7d
   8449a:	ea4f 014e 	mov.w	r1, lr, lsl #1
   8449e:	307c      	adds	r0, #124	; 0x7c
   844a0:	e5be      	b.n	84020 <_malloc_r+0x44>
   844a2:	3210      	adds	r2, #16
   844a4:	e6a4      	b.n	841f0 <_malloc_r+0x214>
   844a6:	2a54      	cmp	r2, #84	; 0x54
   844a8:	d826      	bhi.n	844f8 <_malloc_r+0x51c>
   844aa:	0b1a      	lsrs	r2, r3, #12
   844ac:	f102 016f 	add.w	r1, r2, #111	; 0x6f
   844b0:	0049      	lsls	r1, r1, #1
   844b2:	326e      	adds	r2, #110	; 0x6e
   844b4:	e748      	b.n	84348 <_malloc_r+0x36c>
   844b6:	68bc      	ldr	r4, [r7, #8]
   844b8:	6862      	ldr	r2, [r4, #4]
   844ba:	f022 0203 	bic.w	r2, r2, #3
   844be:	e705      	b.n	842cc <_malloc_r+0x2f0>
   844c0:	f3ca 000b 	ubfx	r0, sl, #0, #12
   844c4:	2800      	cmp	r0, #0
   844c6:	f47f aea8 	bne.w	8421a <_malloc_r+0x23e>
   844ca:	4442      	add	r2, r8
   844cc:	68bb      	ldr	r3, [r7, #8]
   844ce:	f042 0201 	orr.w	r2, r2, #1
   844d2:	605a      	str	r2, [r3, #4]
   844d4:	e6ec      	b.n	842b0 <_malloc_r+0x2d4>
   844d6:	21fe      	movs	r1, #254	; 0xfe
   844d8:	f04f 0e7f 	mov.w	lr, #127	; 0x7f
   844dc:	207e      	movs	r0, #126	; 0x7e
   844de:	e59f      	b.n	84020 <_malloc_r+0x44>
   844e0:	2201      	movs	r2, #1
   844e2:	f04f 0900 	mov.w	r9, #0
   844e6:	e6c1      	b.n	8426c <_malloc_r+0x290>
   844e8:	f104 0108 	add.w	r1, r4, #8
   844ec:	4630      	mov	r0, r6
   844ee:	f7ff fa5b 	bl	839a8 <_free_r>
   844f2:	f8d9 1000 	ldr.w	r1, [r9]
   844f6:	e6db      	b.n	842b0 <_malloc_r+0x2d4>
   844f8:	f5b2 7faa 	cmp.w	r2, #340	; 0x154
   844fc:	d805      	bhi.n	8450a <_malloc_r+0x52e>
   844fe:	0bda      	lsrs	r2, r3, #15
   84500:	f102 0178 	add.w	r1, r2, #120	; 0x78
   84504:	0049      	lsls	r1, r1, #1
   84506:	3277      	adds	r2, #119	; 0x77
   84508:	e71e      	b.n	84348 <_malloc_r+0x36c>
   8450a:	f240 5154 	movw	r1, #1364	; 0x554
   8450e:	428a      	cmp	r2, r1
   84510:	d805      	bhi.n	8451e <_malloc_r+0x542>
   84512:	0c9a      	lsrs	r2, r3, #18
   84514:	f102 017d 	add.w	r1, r2, #125	; 0x7d
   84518:	0049      	lsls	r1, r1, #1
   8451a:	327c      	adds	r2, #124	; 0x7c
   8451c:	e714      	b.n	84348 <_malloc_r+0x36c>
   8451e:	21fe      	movs	r1, #254	; 0xfe
   84520:	227e      	movs	r2, #126	; 0x7e
   84522:	e711      	b.n	84348 <_malloc_r+0x36c>
   84524:	687b      	ldr	r3, [r7, #4]
   84526:	e784      	b.n	84432 <_malloc_r+0x456>
   84528:	08e8      	lsrs	r0, r5, #3
   8452a:	1c43      	adds	r3, r0, #1
   8452c:	005b      	lsls	r3, r3, #1
   8452e:	e605      	b.n	8413c <_malloc_r+0x160>
   84530:	20000598 	.word	0x20000598

00084534 <memchr>:
   84534:	0783      	lsls	r3, r0, #30
   84536:	b470      	push	{r4, r5, r6}
   84538:	b2cd      	uxtb	r5, r1
   8453a:	d03d      	beq.n	845b8 <memchr+0x84>
   8453c:	1e53      	subs	r3, r2, #1
   8453e:	b302      	cbz	r2, 84582 <memchr+0x4e>
   84540:	7802      	ldrb	r2, [r0, #0]
   84542:	42aa      	cmp	r2, r5
   84544:	d01e      	beq.n	84584 <memchr+0x50>
   84546:	1c42      	adds	r2, r0, #1
   84548:	e004      	b.n	84554 <memchr+0x20>
   8454a:	b1d3      	cbz	r3, 84582 <memchr+0x4e>
   8454c:	7804      	ldrb	r4, [r0, #0]
   8454e:	3b01      	subs	r3, #1
   84550:	42ac      	cmp	r4, r5
   84552:	d017      	beq.n	84584 <memchr+0x50>
   84554:	f012 0f03 	tst.w	r2, #3
   84558:	4610      	mov	r0, r2
   8455a:	f102 0201 	add.w	r2, r2, #1
   8455e:	d1f4      	bne.n	8454a <memchr+0x16>
   84560:	2b03      	cmp	r3, #3
   84562:	d811      	bhi.n	84588 <memchr+0x54>
   84564:	b353      	cbz	r3, 845bc <memchr+0x88>
   84566:	7802      	ldrb	r2, [r0, #0]
   84568:	42aa      	cmp	r2, r5
   8456a:	d00b      	beq.n	84584 <memchr+0x50>
   8456c:	4403      	add	r3, r0
   8456e:	1c42      	adds	r2, r0, #1
   84570:	e002      	b.n	84578 <memchr+0x44>
   84572:	7801      	ldrb	r1, [r0, #0]
   84574:	42a9      	cmp	r1, r5
   84576:	d005      	beq.n	84584 <memchr+0x50>
   84578:	4293      	cmp	r3, r2
   8457a:	4610      	mov	r0, r2
   8457c:	f102 0201 	add.w	r2, r2, #1
   84580:	d1f7      	bne.n	84572 <memchr+0x3e>
   84582:	2000      	movs	r0, #0
   84584:	bc70      	pop	{r4, r5, r6}
   84586:	4770      	bx	lr
   84588:	4604      	mov	r4, r0
   8458a:	020e      	lsls	r6, r1, #8
   8458c:	f406 467f 	and.w	r6, r6, #65280	; 0xff00
   84590:	432e      	orrs	r6, r5
   84592:	ea46 4606 	orr.w	r6, r6, r6, lsl #16
   84596:	6822      	ldr	r2, [r4, #0]
   84598:	4620      	mov	r0, r4
   8459a:	4072      	eors	r2, r6
   8459c:	f1a2 3101 	sub.w	r1, r2, #16843009	; 0x1010101
   845a0:	ea21 0202 	bic.w	r2, r1, r2
   845a4:	f012 3f80 	tst.w	r2, #2155905152	; 0x80808080
   845a8:	f104 0404 	add.w	r4, r4, #4
   845ac:	d1db      	bne.n	84566 <memchr+0x32>
   845ae:	3b04      	subs	r3, #4
   845b0:	2b03      	cmp	r3, #3
   845b2:	4620      	mov	r0, r4
   845b4:	d8ef      	bhi.n	84596 <memchr+0x62>
   845b6:	e7d5      	b.n	84564 <memchr+0x30>
   845b8:	4613      	mov	r3, r2
   845ba:	e7d1      	b.n	84560 <memchr+0x2c>
   845bc:	4618      	mov	r0, r3
   845be:	e7e1      	b.n	84584 <memchr+0x50>

000845c0 <memcpy>:
   845c0:	4684      	mov	ip, r0
   845c2:	ea41 0300 	orr.w	r3, r1, r0
   845c6:	f013 0303 	ands.w	r3, r3, #3
   845ca:	d149      	bne.n	84660 <memcpy+0xa0>
   845cc:	3a40      	subs	r2, #64	; 0x40
   845ce:	d323      	bcc.n	84618 <memcpy+0x58>
   845d0:	680b      	ldr	r3, [r1, #0]
   845d2:	6003      	str	r3, [r0, #0]
   845d4:	684b      	ldr	r3, [r1, #4]
   845d6:	6043      	str	r3, [r0, #4]
   845d8:	688b      	ldr	r3, [r1, #8]
   845da:	6083      	str	r3, [r0, #8]
   845dc:	68cb      	ldr	r3, [r1, #12]
   845de:	60c3      	str	r3, [r0, #12]
   845e0:	690b      	ldr	r3, [r1, #16]
   845e2:	6103      	str	r3, [r0, #16]
   845e4:	694b      	ldr	r3, [r1, #20]
   845e6:	6143      	str	r3, [r0, #20]
   845e8:	698b      	ldr	r3, [r1, #24]
   845ea:	6183      	str	r3, [r0, #24]
   845ec:	69cb      	ldr	r3, [r1, #28]
   845ee:	61c3      	str	r3, [r0, #28]
   845f0:	6a0b      	ldr	r3, [r1, #32]
   845f2:	6203      	str	r3, [r0, #32]
   845f4:	6a4b      	ldr	r3, [r1, #36]	; 0x24
   845f6:	6243      	str	r3, [r0, #36]	; 0x24
   845f8:	6a8b      	ldr	r3, [r1, #40]	; 0x28
   845fa:	6283      	str	r3, [r0, #40]	; 0x28
   845fc:	6acb      	ldr	r3, [r1, #44]	; 0x2c
   845fe:	62c3      	str	r3, [r0, #44]	; 0x2c
   84600:	6b0b      	ldr	r3, [r1, #48]	; 0x30
   84602:	6303      	str	r3, [r0, #48]	; 0x30
   84604:	6b4b      	ldr	r3, [r1, #52]	; 0x34
   84606:	6343      	str	r3, [r0, #52]	; 0x34
   84608:	6b8b      	ldr	r3, [r1, #56]	; 0x38
   8460a:	6383      	str	r3, [r0, #56]	; 0x38
   8460c:	6bcb      	ldr	r3, [r1, #60]	; 0x3c
   8460e:	63c3      	str	r3, [r0, #60]	; 0x3c
   84610:	3040      	adds	r0, #64	; 0x40
   84612:	3140      	adds	r1, #64	; 0x40
   84614:	3a40      	subs	r2, #64	; 0x40
   84616:	d2db      	bcs.n	845d0 <memcpy+0x10>
   84618:	3230      	adds	r2, #48	; 0x30
   8461a:	d30b      	bcc.n	84634 <memcpy+0x74>
   8461c:	680b      	ldr	r3, [r1, #0]
   8461e:	6003      	str	r3, [r0, #0]
   84620:	684b      	ldr	r3, [r1, #4]
   84622:	6043      	str	r3, [r0, #4]
   84624:	688b      	ldr	r3, [r1, #8]
   84626:	6083      	str	r3, [r0, #8]
   84628:	68cb      	ldr	r3, [r1, #12]
   8462a:	60c3      	str	r3, [r0, #12]
   8462c:	3010      	adds	r0, #16
   8462e:	3110      	adds	r1, #16
   84630:	3a10      	subs	r2, #16
   84632:	d2f3      	bcs.n	8461c <memcpy+0x5c>
   84634:	320c      	adds	r2, #12
   84636:	d305      	bcc.n	84644 <memcpy+0x84>
   84638:	f851 3b04 	ldr.w	r3, [r1], #4
   8463c:	f840 3b04 	str.w	r3, [r0], #4
   84640:	3a04      	subs	r2, #4
   84642:	d2f9      	bcs.n	84638 <memcpy+0x78>
   84644:	3204      	adds	r2, #4
   84646:	d008      	beq.n	8465a <memcpy+0x9a>
   84648:	07d2      	lsls	r2, r2, #31
   8464a:	bf1c      	itt	ne
   8464c:	f811 3b01 	ldrbne.w	r3, [r1], #1
   84650:	f800 3b01 	strbne.w	r3, [r0], #1
   84654:	d301      	bcc.n	8465a <memcpy+0x9a>
   84656:	880b      	ldrh	r3, [r1, #0]
   84658:	8003      	strh	r3, [r0, #0]
   8465a:	4660      	mov	r0, ip
   8465c:	4770      	bx	lr
   8465e:	bf00      	nop
   84660:	2a08      	cmp	r2, #8
   84662:	d313      	bcc.n	8468c <memcpy+0xcc>
   84664:	078b      	lsls	r3, r1, #30
   84666:	d0b1      	beq.n	845cc <memcpy+0xc>
   84668:	f010 0303 	ands.w	r3, r0, #3
   8466c:	d0ae      	beq.n	845cc <memcpy+0xc>
   8466e:	f1c3 0304 	rsb	r3, r3, #4
   84672:	1ad2      	subs	r2, r2, r3
   84674:	07db      	lsls	r3, r3, #31
   84676:	bf1c      	itt	ne
   84678:	f811 3b01 	ldrbne.w	r3, [r1], #1
   8467c:	f800 3b01 	strbne.w	r3, [r0], #1
   84680:	d3a4      	bcc.n	845cc <memcpy+0xc>
   84682:	f831 3b02 	ldrh.w	r3, [r1], #2
   84686:	f820 3b02 	strh.w	r3, [r0], #2
   8468a:	e79f      	b.n	845cc <memcpy+0xc>
   8468c:	3a04      	subs	r2, #4
   8468e:	d3d9      	bcc.n	84644 <memcpy+0x84>
   84690:	3a01      	subs	r2, #1
   84692:	f811 3b01 	ldrb.w	r3, [r1], #1
   84696:	f800 3b01 	strb.w	r3, [r0], #1
   8469a:	d2f9      	bcs.n	84690 <memcpy+0xd0>
   8469c:	780b      	ldrb	r3, [r1, #0]
   8469e:	7003      	strb	r3, [r0, #0]
   846a0:	784b      	ldrb	r3, [r1, #1]
   846a2:	7043      	strb	r3, [r0, #1]
   846a4:	788b      	ldrb	r3, [r1, #2]
   846a6:	7083      	strb	r3, [r0, #2]
   846a8:	4660      	mov	r0, ip
   846aa:	4770      	bx	lr

000846ac <memmove>:
   846ac:	4288      	cmp	r0, r1
   846ae:	b5f0      	push	{r4, r5, r6, r7, lr}
   846b0:	d90d      	bls.n	846ce <memmove+0x22>
   846b2:	188b      	adds	r3, r1, r2
   846b4:	4298      	cmp	r0, r3
   846b6:	d20a      	bcs.n	846ce <memmove+0x22>
   846b8:	1881      	adds	r1, r0, r2
   846ba:	2a00      	cmp	r2, #0
   846bc:	d051      	beq.n	84762 <memmove+0xb6>
   846be:	1a9a      	subs	r2, r3, r2
   846c0:	f813 4d01 	ldrb.w	r4, [r3, #-1]!
   846c4:	4293      	cmp	r3, r2
   846c6:	f801 4d01 	strb.w	r4, [r1, #-1]!
   846ca:	d1f9      	bne.n	846c0 <memmove+0x14>
   846cc:	bdf0      	pop	{r4, r5, r6, r7, pc}
   846ce:	2a0f      	cmp	r2, #15
   846d0:	d948      	bls.n	84764 <memmove+0xb8>
   846d2:	ea41 0300 	orr.w	r3, r1, r0
   846d6:	079b      	lsls	r3, r3, #30
   846d8:	d146      	bne.n	84768 <memmove+0xbc>
   846da:	4615      	mov	r5, r2
   846dc:	f100 0410 	add.w	r4, r0, #16
   846e0:	f101 0310 	add.w	r3, r1, #16
   846e4:	f853 6c10 	ldr.w	r6, [r3, #-16]
   846e8:	3d10      	subs	r5, #16
   846ea:	f844 6c10 	str.w	r6, [r4, #-16]
   846ee:	f853 6c0c 	ldr.w	r6, [r3, #-12]
   846f2:	2d0f      	cmp	r5, #15
   846f4:	f844 6c0c 	str.w	r6, [r4, #-12]
   846f8:	f853 6c08 	ldr.w	r6, [r3, #-8]
   846fc:	f104 0410 	add.w	r4, r4, #16
   84700:	f844 6c18 	str.w	r6, [r4, #-24]
   84704:	f853 6c04 	ldr.w	r6, [r3, #-4]
   84708:	f103 0310 	add.w	r3, r3, #16
   8470c:	f844 6c14 	str.w	r6, [r4, #-20]
   84710:	d8e8      	bhi.n	846e4 <memmove+0x38>
   84712:	f1a2 0310 	sub.w	r3, r2, #16
   84716:	f023 030f 	bic.w	r3, r3, #15
   8471a:	f002 0e0f 	and.w	lr, r2, #15
   8471e:	3310      	adds	r3, #16
   84720:	f1be 0f03 	cmp.w	lr, #3
   84724:	4419      	add	r1, r3
   84726:	4403      	add	r3, r0
   84728:	d921      	bls.n	8476e <memmove+0xc2>
   8472a:	460e      	mov	r6, r1
   8472c:	4674      	mov	r4, lr
   8472e:	1f1d      	subs	r5, r3, #4
   84730:	f856 7b04 	ldr.w	r7, [r6], #4
   84734:	3c04      	subs	r4, #4
   84736:	2c03      	cmp	r4, #3
   84738:	f845 7f04 	str.w	r7, [r5, #4]!
   8473c:	d8f8      	bhi.n	84730 <memmove+0x84>
   8473e:	f1ae 0404 	sub.w	r4, lr, #4
   84742:	f024 0403 	bic.w	r4, r4, #3
   84746:	3404      	adds	r4, #4
   84748:	4423      	add	r3, r4
   8474a:	4421      	add	r1, r4
   8474c:	f002 0203 	and.w	r2, r2, #3
   84750:	b162      	cbz	r2, 8476c <memmove+0xc0>
   84752:	3b01      	subs	r3, #1
   84754:	440a      	add	r2, r1
   84756:	f811 4b01 	ldrb.w	r4, [r1], #1
   8475a:	428a      	cmp	r2, r1
   8475c:	f803 4f01 	strb.w	r4, [r3, #1]!
   84760:	d1f9      	bne.n	84756 <memmove+0xaa>
   84762:	bdf0      	pop	{r4, r5, r6, r7, pc}
   84764:	4603      	mov	r3, r0
   84766:	e7f3      	b.n	84750 <memmove+0xa4>
   84768:	4603      	mov	r3, r0
   8476a:	e7f2      	b.n	84752 <memmove+0xa6>
   8476c:	bdf0      	pop	{r4, r5, r6, r7, pc}
   8476e:	4672      	mov	r2, lr
   84770:	e7ee      	b.n	84750 <memmove+0xa4>
   84772:	bf00      	nop

00084774 <__malloc_lock>:
   84774:	4770      	bx	lr
   84776:	bf00      	nop

00084778 <__malloc_unlock>:
   84778:	4770      	bx	lr
   8477a:	bf00      	nop

0008477c <_realloc_r>:
   8477c:	e92d 4ff0 	stmdb	sp!, {r4, r5, r6, r7, r8, r9, sl, fp, lr}
   84780:	4617      	mov	r7, r2
   84782:	b083      	sub	sp, #12
   84784:	2900      	cmp	r1, #0
   84786:	f000 808f 	beq.w	848a8 <_realloc_r+0x12c>
   8478a:	460d      	mov	r5, r1
   8478c:	4681      	mov	r9, r0
   8478e:	f107 040b 	add.w	r4, r7, #11
   84792:	f7ff ffef 	bl	84774 <__malloc_lock>
   84796:	f855 ec04 	ldr.w	lr, [r5, #-4]
   8479a:	2c16      	cmp	r4, #22
   8479c:	f02e 0603 	bic.w	r6, lr, #3
   847a0:	f1a5 0808 	sub.w	r8, r5, #8
   847a4:	d83c      	bhi.n	84820 <_realloc_r+0xa4>
   847a6:	2210      	movs	r2, #16
   847a8:	4614      	mov	r4, r2
   847aa:	42a7      	cmp	r7, r4
   847ac:	d83d      	bhi.n	8482a <_realloc_r+0xae>
   847ae:	4296      	cmp	r6, r2
   847b0:	da42      	bge.n	84838 <_realloc_r+0xbc>
   847b2:	4bc6      	ldr	r3, [pc, #792]	; (84acc <_realloc_r+0x350>)
   847b4:	eb08 0006 	add.w	r0, r8, r6
   847b8:	6899      	ldr	r1, [r3, #8]
   847ba:	4288      	cmp	r0, r1
   847bc:	6841      	ldr	r1, [r0, #4]
   847be:	f000 80d7 	beq.w	84970 <_realloc_r+0x1f4>
   847c2:	f021 0301 	bic.w	r3, r1, #1
   847c6:	4403      	add	r3, r0
   847c8:	685b      	ldr	r3, [r3, #4]
   847ca:	07db      	lsls	r3, r3, #31
   847cc:	d54c      	bpl.n	84868 <_realloc_r+0xec>
   847ce:	f01e 0f01 	tst.w	lr, #1
   847d2:	f000 809d 	beq.w	84910 <_realloc_r+0x194>
   847d6:	4639      	mov	r1, r7
   847d8:	4648      	mov	r0, r9
   847da:	f7ff fbff 	bl	83fdc <_malloc_r>
   847de:	4607      	mov	r7, r0
   847e0:	2800      	cmp	r0, #0
   847e2:	d03a      	beq.n	8485a <_realloc_r+0xde>
   847e4:	f855 3c04 	ldr.w	r3, [r5, #-4]
   847e8:	f1a0 0208 	sub.w	r2, r0, #8
   847ec:	f023 0301 	bic.w	r3, r3, #1
   847f0:	4443      	add	r3, r8
   847f2:	429a      	cmp	r2, r3
   847f4:	f000 813e 	beq.w	84a74 <_realloc_r+0x2f8>
   847f8:	1f32      	subs	r2, r6, #4
   847fa:	2a24      	cmp	r2, #36	; 0x24
   847fc:	f200 812b 	bhi.w	84a56 <_realloc_r+0x2da>
   84800:	2a13      	cmp	r2, #19
   84802:	f200 80ff 	bhi.w	84a04 <_realloc_r+0x288>
   84806:	4603      	mov	r3, r0
   84808:	462a      	mov	r2, r5
   8480a:	6811      	ldr	r1, [r2, #0]
   8480c:	6019      	str	r1, [r3, #0]
   8480e:	6851      	ldr	r1, [r2, #4]
   84810:	6059      	str	r1, [r3, #4]
   84812:	6892      	ldr	r2, [r2, #8]
   84814:	609a      	str	r2, [r3, #8]
   84816:	4629      	mov	r1, r5
   84818:	4648      	mov	r0, r9
   8481a:	f7ff f8c5 	bl	839a8 <_free_r>
   8481e:	e01c      	b.n	8485a <_realloc_r+0xde>
   84820:	f024 0407 	bic.w	r4, r4, #7
   84824:	2c00      	cmp	r4, #0
   84826:	4622      	mov	r2, r4
   84828:	dabf      	bge.n	847aa <_realloc_r+0x2e>
   8482a:	230c      	movs	r3, #12
   8482c:	2000      	movs	r0, #0
   8482e:	f8c9 3000 	str.w	r3, [r9]
   84832:	b003      	add	sp, #12
   84834:	e8bd 8ff0 	ldmia.w	sp!, {r4, r5, r6, r7, r8, r9, sl, fp, pc}
   84838:	462f      	mov	r7, r5
   8483a:	1b33      	subs	r3, r6, r4
   8483c:	2b0f      	cmp	r3, #15
   8483e:	f8d8 2004 	ldr.w	r2, [r8, #4]
   84842:	d81d      	bhi.n	84880 <_realloc_r+0x104>
   84844:	f002 0201 	and.w	r2, r2, #1
   84848:	4332      	orrs	r2, r6
   8484a:	eb08 0106 	add.w	r1, r8, r6
   8484e:	f8c8 2004 	str.w	r2, [r8, #4]
   84852:	684b      	ldr	r3, [r1, #4]
   84854:	f043 0301 	orr.w	r3, r3, #1
   84858:	604b      	str	r3, [r1, #4]
   8485a:	4648      	mov	r0, r9
   8485c:	f7ff ff8c 	bl	84778 <__malloc_unlock>
   84860:	4638      	mov	r0, r7
   84862:	b003      	add	sp, #12
   84864:	e8bd 8ff0 	ldmia.w	sp!, {r4, r5, r6, r7, r8, r9, sl, fp, pc}
   84868:	f021 0103 	bic.w	r1, r1, #3
   8486c:	4431      	add	r1, r6
   8486e:	4291      	cmp	r1, r2
   84870:	db20      	blt.n	848b4 <_realloc_r+0x138>
   84872:	68c3      	ldr	r3, [r0, #12]
   84874:	6882      	ldr	r2, [r0, #8]
   84876:	462f      	mov	r7, r5
   84878:	60d3      	str	r3, [r2, #12]
   8487a:	460e      	mov	r6, r1
   8487c:	609a      	str	r2, [r3, #8]
   8487e:	e7dc      	b.n	8483a <_realloc_r+0xbe>
   84880:	f002 0201 	and.w	r2, r2, #1
   84884:	eb08 0104 	add.w	r1, r8, r4
   84888:	4314      	orrs	r4, r2
   8488a:	f043 0201 	orr.w	r2, r3, #1
   8488e:	f8c8 4004 	str.w	r4, [r8, #4]
   84892:	440b      	add	r3, r1
   84894:	604a      	str	r2, [r1, #4]
   84896:	685a      	ldr	r2, [r3, #4]
   84898:	3108      	adds	r1, #8
   8489a:	f042 0201 	orr.w	r2, r2, #1
   8489e:	605a      	str	r2, [r3, #4]
   848a0:	4648      	mov	r0, r9
   848a2:	f7ff f881 	bl	839a8 <_free_r>
   848a6:	e7d8      	b.n	8485a <_realloc_r+0xde>
   848a8:	4611      	mov	r1, r2
   848aa:	b003      	add	sp, #12
   848ac:	e8bd 4ff0 	ldmia.w	sp!, {r4, r5, r6, r7, r8, r9, sl, fp, lr}
   848b0:	f7ff bb94 	b.w	83fdc <_malloc_r>
   848b4:	f01e 0f01 	tst.w	lr, #1
   848b8:	d18d      	bne.n	847d6 <_realloc_r+0x5a>
   848ba:	f855 3c08 	ldr.w	r3, [r5, #-8]
   848be:	ebc3 0a08 	rsb	sl, r3, r8
   848c2:	f8da 3004 	ldr.w	r3, [sl, #4]
   848c6:	f023 0c03 	bic.w	ip, r3, #3
   848ca:	eb01 0e0c 	add.w	lr, r1, ip
   848ce:	4596      	cmp	lr, r2
   848d0:	db26      	blt.n	84920 <_realloc_r+0x1a4>
   848d2:	4657      	mov	r7, sl
   848d4:	68c3      	ldr	r3, [r0, #12]
   848d6:	6881      	ldr	r1, [r0, #8]
   848d8:	1f32      	subs	r2, r6, #4
   848da:	60cb      	str	r3, [r1, #12]
   848dc:	6099      	str	r1, [r3, #8]
   848de:	f857 1f08 	ldr.w	r1, [r7, #8]!
   848e2:	f8da 300c 	ldr.w	r3, [sl, #12]
   848e6:	2a24      	cmp	r2, #36	; 0x24
   848e8:	60cb      	str	r3, [r1, #12]
   848ea:	6099      	str	r1, [r3, #8]
   848ec:	f200 80c9 	bhi.w	84a82 <_realloc_r+0x306>
   848f0:	2a13      	cmp	r2, #19
   848f2:	f240 8092 	bls.w	84a1a <_realloc_r+0x29e>
   848f6:	682b      	ldr	r3, [r5, #0]
   848f8:	2a1b      	cmp	r2, #27
   848fa:	f8ca 3008 	str.w	r3, [sl, #8]
   848fe:	686b      	ldr	r3, [r5, #4]
   84900:	f8ca 300c 	str.w	r3, [sl, #12]
   84904:	f200 80cd 	bhi.w	84aa2 <_realloc_r+0x326>
   84908:	3508      	adds	r5, #8
   8490a:	f10a 0310 	add.w	r3, sl, #16
   8490e:	e085      	b.n	84a1c <_realloc_r+0x2a0>
   84910:	f855 3c08 	ldr.w	r3, [r5, #-8]
   84914:	ebc3 0a08 	rsb	sl, r3, r8
   84918:	f8da 3004 	ldr.w	r3, [sl, #4]
   8491c:	f023 0c03 	bic.w	ip, r3, #3
   84920:	eb06 030c 	add.w	r3, r6, ip
   84924:	4293      	cmp	r3, r2
   84926:	f6ff af56 	blt.w	847d6 <_realloc_r+0x5a>
   8492a:	4657      	mov	r7, sl
   8492c:	f8da 100c 	ldr.w	r1, [sl, #12]
   84930:	f857 0f08 	ldr.w	r0, [r7, #8]!
   84934:	1f32      	subs	r2, r6, #4
   84936:	2a24      	cmp	r2, #36	; 0x24
   84938:	60c1      	str	r1, [r0, #12]
   8493a:	6088      	str	r0, [r1, #8]
   8493c:	f200 80aa 	bhi.w	84a94 <_realloc_r+0x318>
   84940:	2a13      	cmp	r2, #19
   84942:	f240 80a5 	bls.w	84a90 <_realloc_r+0x314>
   84946:	6829      	ldr	r1, [r5, #0]
   84948:	2a1b      	cmp	r2, #27
   8494a:	f8ca 1008 	str.w	r1, [sl, #8]
   8494e:	6869      	ldr	r1, [r5, #4]
   84950:	f8ca 100c 	str.w	r1, [sl, #12]
   84954:	f200 80bc 	bhi.w	84ad0 <_realloc_r+0x354>
   84958:	3508      	adds	r5, #8
   8495a:	f10a 0210 	add.w	r2, sl, #16
   8495e:	6829      	ldr	r1, [r5, #0]
   84960:	461e      	mov	r6, r3
   84962:	6011      	str	r1, [r2, #0]
   84964:	6869      	ldr	r1, [r5, #4]
   84966:	46d0      	mov	r8, sl
   84968:	6051      	str	r1, [r2, #4]
   8496a:	68ab      	ldr	r3, [r5, #8]
   8496c:	6093      	str	r3, [r2, #8]
   8496e:	e764      	b.n	8483a <_realloc_r+0xbe>
   84970:	f021 0b03 	bic.w	fp, r1, #3
   84974:	f104 0010 	add.w	r0, r4, #16
   84978:	44b3      	add	fp, r6
   8497a:	4583      	cmp	fp, r0
   8497c:	da57      	bge.n	84a2e <_realloc_r+0x2b2>
   8497e:	f01e 0f01 	tst.w	lr, #1
   84982:	f47f af28 	bne.w	847d6 <_realloc_r+0x5a>
   84986:	f855 1c08 	ldr.w	r1, [r5, #-8]
   8498a:	ebc1 0a08 	rsb	sl, r1, r8
   8498e:	f8da 1004 	ldr.w	r1, [sl, #4]
   84992:	f021 0c03 	bic.w	ip, r1, #3
   84996:	44e3      	add	fp, ip
   84998:	4558      	cmp	r0, fp
   8499a:	dcc1      	bgt.n	84920 <_realloc_r+0x1a4>
   8499c:	4657      	mov	r7, sl
   8499e:	f8da 100c 	ldr.w	r1, [sl, #12]
   849a2:	f857 0f08 	ldr.w	r0, [r7, #8]!
   849a6:	1f32      	subs	r2, r6, #4
   849a8:	2a24      	cmp	r2, #36	; 0x24
   849aa:	60c1      	str	r1, [r0, #12]
   849ac:	6088      	str	r0, [r1, #8]
   849ae:	f200 80b1 	bhi.w	84b14 <_realloc_r+0x398>
   849b2:	2a13      	cmp	r2, #19
   849b4:	f240 80a2 	bls.w	84afc <_realloc_r+0x380>
   849b8:	6829      	ldr	r1, [r5, #0]
   849ba:	2a1b      	cmp	r2, #27
   849bc:	f8ca 1008 	str.w	r1, [sl, #8]
   849c0:	6869      	ldr	r1, [r5, #4]
   849c2:	f8ca 100c 	str.w	r1, [sl, #12]
   849c6:	f200 80ac 	bhi.w	84b22 <_realloc_r+0x3a6>
   849ca:	3508      	adds	r5, #8
   849cc:	f10a 0210 	add.w	r2, sl, #16
   849d0:	6829      	ldr	r1, [r5, #0]
   849d2:	6011      	str	r1, [r2, #0]
   849d4:	6869      	ldr	r1, [r5, #4]
   849d6:	6051      	str	r1, [r2, #4]
   849d8:	68a9      	ldr	r1, [r5, #8]
   849da:	6091      	str	r1, [r2, #8]
   849dc:	ebc4 020b 	rsb	r2, r4, fp
   849e0:	eb0a 0104 	add.w	r1, sl, r4
   849e4:	f042 0201 	orr.w	r2, r2, #1
   849e8:	6099      	str	r1, [r3, #8]
   849ea:	604a      	str	r2, [r1, #4]
   849ec:	f8da 3004 	ldr.w	r3, [sl, #4]
   849f0:	4648      	mov	r0, r9
   849f2:	f003 0301 	and.w	r3, r3, #1
   849f6:	431c      	orrs	r4, r3
   849f8:	f8ca 4004 	str.w	r4, [sl, #4]
   849fc:	f7ff febc 	bl	84778 <__malloc_unlock>
   84a00:	4638      	mov	r0, r7
   84a02:	e72e      	b.n	84862 <_realloc_r+0xe6>
   84a04:	682b      	ldr	r3, [r5, #0]
   84a06:	2a1b      	cmp	r2, #27
   84a08:	6003      	str	r3, [r0, #0]
   84a0a:	686b      	ldr	r3, [r5, #4]
   84a0c:	6043      	str	r3, [r0, #4]
   84a0e:	d826      	bhi.n	84a5e <_realloc_r+0x2e2>
   84a10:	f100 0308 	add.w	r3, r0, #8
   84a14:	f105 0208 	add.w	r2, r5, #8
   84a18:	e6f7      	b.n	8480a <_realloc_r+0x8e>
   84a1a:	463b      	mov	r3, r7
   84a1c:	682a      	ldr	r2, [r5, #0]
   84a1e:	4676      	mov	r6, lr
   84a20:	601a      	str	r2, [r3, #0]
   84a22:	686a      	ldr	r2, [r5, #4]
   84a24:	46d0      	mov	r8, sl
   84a26:	605a      	str	r2, [r3, #4]
   84a28:	68aa      	ldr	r2, [r5, #8]
   84a2a:	609a      	str	r2, [r3, #8]
   84a2c:	e705      	b.n	8483a <_realloc_r+0xbe>
   84a2e:	ebc4 0b0b 	rsb	fp, r4, fp
   84a32:	eb08 0104 	add.w	r1, r8, r4
   84a36:	f04b 0201 	orr.w	r2, fp, #1
   84a3a:	6099      	str	r1, [r3, #8]
   84a3c:	604a      	str	r2, [r1, #4]
   84a3e:	f855 3c04 	ldr.w	r3, [r5, #-4]
   84a42:	4648      	mov	r0, r9
   84a44:	f003 0301 	and.w	r3, r3, #1
   84a48:	431c      	orrs	r4, r3
   84a4a:	f845 4c04 	str.w	r4, [r5, #-4]
   84a4e:	f7ff fe93 	bl	84778 <__malloc_unlock>
   84a52:	4628      	mov	r0, r5
   84a54:	e705      	b.n	84862 <_realloc_r+0xe6>
   84a56:	4629      	mov	r1, r5
   84a58:	f7ff fe28 	bl	846ac <memmove>
   84a5c:	e6db      	b.n	84816 <_realloc_r+0x9a>
   84a5e:	68ab      	ldr	r3, [r5, #8]
   84a60:	2a24      	cmp	r2, #36	; 0x24
   84a62:	6083      	str	r3, [r0, #8]
   84a64:	68eb      	ldr	r3, [r5, #12]
   84a66:	60c3      	str	r3, [r0, #12]
   84a68:	d027      	beq.n	84aba <_realloc_r+0x33e>
   84a6a:	f100 0310 	add.w	r3, r0, #16
   84a6e:	f105 0210 	add.w	r2, r5, #16
   84a72:	e6ca      	b.n	8480a <_realloc_r+0x8e>
   84a74:	f850 3c04 	ldr.w	r3, [r0, #-4]
   84a78:	462f      	mov	r7, r5
   84a7a:	f023 0303 	bic.w	r3, r3, #3
   84a7e:	441e      	add	r6, r3
   84a80:	e6db      	b.n	8483a <_realloc_r+0xbe>
   84a82:	4629      	mov	r1, r5
   84a84:	4638      	mov	r0, r7
   84a86:	4676      	mov	r6, lr
   84a88:	46d0      	mov	r8, sl
   84a8a:	f7ff fe0f 	bl	846ac <memmove>
   84a8e:	e6d4      	b.n	8483a <_realloc_r+0xbe>
   84a90:	463a      	mov	r2, r7
   84a92:	e764      	b.n	8495e <_realloc_r+0x1e2>
   84a94:	4629      	mov	r1, r5
   84a96:	4638      	mov	r0, r7
   84a98:	461e      	mov	r6, r3
   84a9a:	46d0      	mov	r8, sl
   84a9c:	f7ff fe06 	bl	846ac <memmove>
   84aa0:	e6cb      	b.n	8483a <_realloc_r+0xbe>
   84aa2:	68ab      	ldr	r3, [r5, #8]
   84aa4:	2a24      	cmp	r2, #36	; 0x24
   84aa6:	f8ca 3010 	str.w	r3, [sl, #16]
   84aaa:	68eb      	ldr	r3, [r5, #12]
   84aac:	f8ca 3014 	str.w	r3, [sl, #20]
   84ab0:	d01a      	beq.n	84ae8 <_realloc_r+0x36c>
   84ab2:	3510      	adds	r5, #16
   84ab4:	f10a 0318 	add.w	r3, sl, #24
   84ab8:	e7b0      	b.n	84a1c <_realloc_r+0x2a0>
   84aba:	692a      	ldr	r2, [r5, #16]
   84abc:	f100 0318 	add.w	r3, r0, #24
   84ac0:	6102      	str	r2, [r0, #16]
   84ac2:	6969      	ldr	r1, [r5, #20]
   84ac4:	f105 0218 	add.w	r2, r5, #24
   84ac8:	6141      	str	r1, [r0, #20]
   84aca:	e69e      	b.n	8480a <_realloc_r+0x8e>
   84acc:	20000598 	.word	0x20000598
   84ad0:	68a9      	ldr	r1, [r5, #8]
   84ad2:	2a24      	cmp	r2, #36	; 0x24
   84ad4:	f8ca 1010 	str.w	r1, [sl, #16]
   84ad8:	68e9      	ldr	r1, [r5, #12]
   84ada:	f8ca 1014 	str.w	r1, [sl, #20]
   84ade:	d00f      	beq.n	84b00 <_realloc_r+0x384>
   84ae0:	3510      	adds	r5, #16
   84ae2:	f10a 0218 	add.w	r2, sl, #24
   84ae6:	e73a      	b.n	8495e <_realloc_r+0x1e2>
   84ae8:	692a      	ldr	r2, [r5, #16]
   84aea:	f10a 0320 	add.w	r3, sl, #32
   84aee:	f8ca 2018 	str.w	r2, [sl, #24]
   84af2:	696a      	ldr	r2, [r5, #20]
   84af4:	3518      	adds	r5, #24
   84af6:	f8ca 201c 	str.w	r2, [sl, #28]
   84afa:	e78f      	b.n	84a1c <_realloc_r+0x2a0>
   84afc:	463a      	mov	r2, r7
   84afe:	e767      	b.n	849d0 <_realloc_r+0x254>
   84b00:	6929      	ldr	r1, [r5, #16]
   84b02:	f10a 0220 	add.w	r2, sl, #32
   84b06:	f8ca 1018 	str.w	r1, [sl, #24]
   84b0a:	6969      	ldr	r1, [r5, #20]
   84b0c:	3518      	adds	r5, #24
   84b0e:	f8ca 101c 	str.w	r1, [sl, #28]
   84b12:	e724      	b.n	8495e <_realloc_r+0x1e2>
   84b14:	4629      	mov	r1, r5
   84b16:	4638      	mov	r0, r7
   84b18:	9301      	str	r3, [sp, #4]
   84b1a:	f7ff fdc7 	bl	846ac <memmove>
   84b1e:	9b01      	ldr	r3, [sp, #4]
   84b20:	e75c      	b.n	849dc <_realloc_r+0x260>
   84b22:	68a9      	ldr	r1, [r5, #8]
   84b24:	2a24      	cmp	r2, #36	; 0x24
   84b26:	f8ca 1010 	str.w	r1, [sl, #16]
   84b2a:	68e9      	ldr	r1, [r5, #12]
   84b2c:	f8ca 1014 	str.w	r1, [sl, #20]
   84b30:	d003      	beq.n	84b3a <_realloc_r+0x3be>
   84b32:	3510      	adds	r5, #16
   84b34:	f10a 0218 	add.w	r2, sl, #24
   84b38:	e74a      	b.n	849d0 <_realloc_r+0x254>
   84b3a:	6929      	ldr	r1, [r5, #16]
   84b3c:	f10a 0220 	add.w	r2, sl, #32
   84b40:	f8ca 1018 	str.w	r1, [sl, #24]
   84b44:	6969      	ldr	r1, [r5, #20]
   84b46:	3518      	adds	r5, #24
   84b48:	f8ca 101c 	str.w	r1, [sl, #28]
   84b4c:	e740      	b.n	849d0 <_realloc_r+0x254>
   84b4e:	bf00      	nop

00084b50 <_sbrk_r>:
   84b50:	b538      	push	{r3, r4, r5, lr}
   84b52:	4c07      	ldr	r4, [pc, #28]	; (84b70 <_sbrk_r+0x20>)
   84b54:	2300      	movs	r3, #0
   84b56:	4605      	mov	r5, r0
   84b58:	4608      	mov	r0, r1
   84b5a:	6023      	str	r3, [r4, #0]
   84b5c:	f7fd fa9e 	bl	8209c <_sbrk>
   84b60:	1c43      	adds	r3, r0, #1
   84b62:	d000      	beq.n	84b66 <_sbrk_r+0x16>
   84b64:	bd38      	pop	{r3, r4, r5, pc}
   84b66:	6823      	ldr	r3, [r4, #0]
   84b68:	2b00      	cmp	r3, #0
   84b6a:	d0fb      	beq.n	84b64 <_sbrk_r+0x14>
   84b6c:	602b      	str	r3, [r5, #0]
   84b6e:	bd38      	pop	{r3, r4, r5, pc}
   84b70:	20000cb8 	.word	0x20000cb8

00084b74 <__sread>:
   84b74:	b510      	push	{r4, lr}
   84b76:	460c      	mov	r4, r1
   84b78:	f9b1 100e 	ldrsh.w	r1, [r1, #14]
   84b7c:	f000 f9c4 	bl	84f08 <_read_r>
   84b80:	2800      	cmp	r0, #0
   84b82:	db03      	blt.n	84b8c <__sread+0x18>
   84b84:	6d23      	ldr	r3, [r4, #80]	; 0x50
   84b86:	4403      	add	r3, r0
   84b88:	6523      	str	r3, [r4, #80]	; 0x50
   84b8a:	bd10      	pop	{r4, pc}
   84b8c:	89a3      	ldrh	r3, [r4, #12]
   84b8e:	f423 5380 	bic.w	r3, r3, #4096	; 0x1000
   84b92:	81a3      	strh	r3, [r4, #12]
   84b94:	bd10      	pop	{r4, pc}
   84b96:	bf00      	nop

00084b98 <__swrite>:
   84b98:	e92d 41f0 	stmdb	sp!, {r4, r5, r6, r7, r8, lr}
   84b9c:	460c      	mov	r4, r1
   84b9e:	f9b1 100c 	ldrsh.w	r1, [r1, #12]
   84ba2:	461f      	mov	r7, r3
   84ba4:	05cb      	lsls	r3, r1, #23
   84ba6:	4616      	mov	r6, r2
   84ba8:	4605      	mov	r5, r0
   84baa:	d507      	bpl.n	84bbc <__swrite+0x24>
   84bac:	f9b4 100e 	ldrsh.w	r1, [r4, #14]
   84bb0:	2302      	movs	r3, #2
   84bb2:	2200      	movs	r2, #0
   84bb4:	f000 f992 	bl	84edc <_lseek_r>
   84bb8:	f9b4 100c 	ldrsh.w	r1, [r4, #12]
   84bbc:	f421 5180 	bic.w	r1, r1, #4096	; 0x1000
   84bc0:	81a1      	strh	r1, [r4, #12]
   84bc2:	463b      	mov	r3, r7
   84bc4:	4632      	mov	r2, r6
   84bc6:	f9b4 100e 	ldrsh.w	r1, [r4, #14]
   84bca:	4628      	mov	r0, r5
   84bcc:	e8bd 41f0 	ldmia.w	sp!, {r4, r5, r6, r7, r8, lr}
   84bd0:	f000 b8a2 	b.w	84d18 <_write_r>

00084bd4 <__sseek>:
   84bd4:	b510      	push	{r4, lr}
   84bd6:	460c      	mov	r4, r1
   84bd8:	f9b1 100e 	ldrsh.w	r1, [r1, #14]
   84bdc:	f000 f97e 	bl	84edc <_lseek_r>
   84be0:	89a3      	ldrh	r3, [r4, #12]
   84be2:	1c42      	adds	r2, r0, #1
   84be4:	bf0e      	itee	eq
   84be6:	f423 5380 	biceq.w	r3, r3, #4096	; 0x1000
   84bea:	f443 5380 	orrne.w	r3, r3, #4096	; 0x1000
   84bee:	6520      	strne	r0, [r4, #80]	; 0x50
   84bf0:	81a3      	strh	r3, [r4, #12]
   84bf2:	bd10      	pop	{r4, pc}

00084bf4 <__sclose>:
   84bf4:	f9b1 100e 	ldrsh.w	r1, [r1, #14]
   84bf8:	f000 b8f6 	b.w	84de8 <_close_r>

00084bfc <__swbuf_r>:
   84bfc:	b5f8      	push	{r3, r4, r5, r6, r7, lr}
   84bfe:	460e      	mov	r6, r1
   84c00:	4614      	mov	r4, r2
   84c02:	4607      	mov	r7, r0
   84c04:	b110      	cbz	r0, 84c0c <__swbuf_r+0x10>
   84c06:	6b83      	ldr	r3, [r0, #56]	; 0x38
   84c08:	2b00      	cmp	r3, #0
   84c0a:	d04a      	beq.n	84ca2 <__swbuf_r+0xa6>
   84c0c:	f9b4 200c 	ldrsh.w	r2, [r4, #12]
   84c10:	69a3      	ldr	r3, [r4, #24]
   84c12:	b291      	uxth	r1, r2
   84c14:	0708      	lsls	r0, r1, #28
   84c16:	60a3      	str	r3, [r4, #8]
   84c18:	d538      	bpl.n	84c8c <__swbuf_r+0x90>
   84c1a:	6923      	ldr	r3, [r4, #16]
   84c1c:	2b00      	cmp	r3, #0
   84c1e:	d035      	beq.n	84c8c <__swbuf_r+0x90>
   84c20:	0489      	lsls	r1, r1, #18
   84c22:	b2f5      	uxtb	r5, r6
   84c24:	d515      	bpl.n	84c52 <__swbuf_r+0x56>
   84c26:	6822      	ldr	r2, [r4, #0]
   84c28:	6961      	ldr	r1, [r4, #20]
   84c2a:	1ad3      	subs	r3, r2, r3
   84c2c:	428b      	cmp	r3, r1
   84c2e:	da1c      	bge.n	84c6a <__swbuf_r+0x6e>
   84c30:	3301      	adds	r3, #1
   84c32:	68a1      	ldr	r1, [r4, #8]
   84c34:	1c50      	adds	r0, r2, #1
   84c36:	3901      	subs	r1, #1
   84c38:	60a1      	str	r1, [r4, #8]
   84c3a:	6020      	str	r0, [r4, #0]
   84c3c:	7016      	strb	r6, [r2, #0]
   84c3e:	6962      	ldr	r2, [r4, #20]
   84c40:	429a      	cmp	r2, r3
   84c42:	d01a      	beq.n	84c7a <__swbuf_r+0x7e>
   84c44:	89a3      	ldrh	r3, [r4, #12]
   84c46:	07db      	lsls	r3, r3, #31
   84c48:	d501      	bpl.n	84c4e <__swbuf_r+0x52>
   84c4a:	2d0a      	cmp	r5, #10
   84c4c:	d015      	beq.n	84c7a <__swbuf_r+0x7e>
   84c4e:	4628      	mov	r0, r5
   84c50:	bdf8      	pop	{r3, r4, r5, r6, r7, pc}
   84c52:	6e61      	ldr	r1, [r4, #100]	; 0x64
   84c54:	f442 5200 	orr.w	r2, r2, #8192	; 0x2000
   84c58:	f421 5100 	bic.w	r1, r1, #8192	; 0x2000
   84c5c:	81a2      	strh	r2, [r4, #12]
   84c5e:	6822      	ldr	r2, [r4, #0]
   84c60:	6661      	str	r1, [r4, #100]	; 0x64
   84c62:	6961      	ldr	r1, [r4, #20]
   84c64:	1ad3      	subs	r3, r2, r3
   84c66:	428b      	cmp	r3, r1
   84c68:	dbe2      	blt.n	84c30 <__swbuf_r+0x34>
   84c6a:	4621      	mov	r1, r4
   84c6c:	4638      	mov	r0, r7
   84c6e:	f7fe fd3f 	bl	836f0 <_fflush_r>
   84c72:	b940      	cbnz	r0, 84c86 <__swbuf_r+0x8a>
   84c74:	6822      	ldr	r2, [r4, #0]
   84c76:	2301      	movs	r3, #1
   84c78:	e7db      	b.n	84c32 <__swbuf_r+0x36>
   84c7a:	4621      	mov	r1, r4
   84c7c:	4638      	mov	r0, r7
   84c7e:	f7fe fd37 	bl	836f0 <_fflush_r>
   84c82:	2800      	cmp	r0, #0
   84c84:	d0e3      	beq.n	84c4e <__swbuf_r+0x52>
   84c86:	f04f 30ff 	mov.w	r0, #4294967295
   84c8a:	bdf8      	pop	{r3, r4, r5, r6, r7, pc}
   84c8c:	4621      	mov	r1, r4
   84c8e:	4638      	mov	r0, r7
   84c90:	f7fe fc16 	bl	834c0 <__swsetup_r>
   84c94:	2800      	cmp	r0, #0
   84c96:	d1f6      	bne.n	84c86 <__swbuf_r+0x8a>
   84c98:	f9b4 200c 	ldrsh.w	r2, [r4, #12]
   84c9c:	6923      	ldr	r3, [r4, #16]
   84c9e:	b291      	uxth	r1, r2
   84ca0:	e7be      	b.n	84c20 <__swbuf_r+0x24>
   84ca2:	f7fe fdb9 	bl	83818 <__sinit>
   84ca6:	e7b1      	b.n	84c0c <__swbuf_r+0x10>

00084ca8 <_wcrtomb_r>:
   84ca8:	e92d 41f0 	stmdb	sp!, {r4, r5, r6, r7, r8, lr}
   84cac:	4605      	mov	r5, r0
   84cae:	b086      	sub	sp, #24
   84cb0:	461e      	mov	r6, r3
   84cb2:	460c      	mov	r4, r1
   84cb4:	b1a1      	cbz	r1, 84ce0 <_wcrtomb_r+0x38>
   84cb6:	4b10      	ldr	r3, [pc, #64]	; (84cf8 <_wcrtomb_r+0x50>)
   84cb8:	4617      	mov	r7, r2
   84cba:	f8d3 8000 	ldr.w	r8, [r3]
   84cbe:	f7ff f907 	bl	83ed0 <__locale_charset>
   84cc2:	9600      	str	r6, [sp, #0]
   84cc4:	4603      	mov	r3, r0
   84cc6:	463a      	mov	r2, r7
   84cc8:	4621      	mov	r1, r4
   84cca:	4628      	mov	r0, r5
   84ccc:	47c0      	blx	r8
   84cce:	1c43      	adds	r3, r0, #1
   84cd0:	d103      	bne.n	84cda <_wcrtomb_r+0x32>
   84cd2:	2200      	movs	r2, #0
   84cd4:	238a      	movs	r3, #138	; 0x8a
   84cd6:	6032      	str	r2, [r6, #0]
   84cd8:	602b      	str	r3, [r5, #0]
   84cda:	b006      	add	sp, #24
   84cdc:	e8bd 81f0 	ldmia.w	sp!, {r4, r5, r6, r7, r8, pc}
   84ce0:	4b05      	ldr	r3, [pc, #20]	; (84cf8 <_wcrtomb_r+0x50>)
   84ce2:	681f      	ldr	r7, [r3, #0]
   84ce4:	f7ff f8f4 	bl	83ed0 <__locale_charset>
   84ce8:	9600      	str	r6, [sp, #0]
   84cea:	4603      	mov	r3, r0
   84cec:	4622      	mov	r2, r4
   84cee:	a903      	add	r1, sp, #12
   84cf0:	4628      	mov	r0, r5
   84cf2:	47b8      	blx	r7
   84cf4:	e7eb      	b.n	84cce <_wcrtomb_r+0x26>
   84cf6:	bf00      	nop
   84cf8:	200009a8 	.word	0x200009a8

00084cfc <__ascii_wctomb>:
   84cfc:	b121      	cbz	r1, 84d08 <__ascii_wctomb+0xc>
   84cfe:	2aff      	cmp	r2, #255	; 0xff
   84d00:	d804      	bhi.n	84d0c <__ascii_wctomb+0x10>
   84d02:	700a      	strb	r2, [r1, #0]
   84d04:	2001      	movs	r0, #1
   84d06:	4770      	bx	lr
   84d08:	4608      	mov	r0, r1
   84d0a:	4770      	bx	lr
   84d0c:	238a      	movs	r3, #138	; 0x8a
   84d0e:	6003      	str	r3, [r0, #0]
   84d10:	f04f 30ff 	mov.w	r0, #4294967295
   84d14:	4770      	bx	lr
   84d16:	bf00      	nop

00084d18 <_write_r>:
   84d18:	b570      	push	{r4, r5, r6, lr}
   84d1a:	460d      	mov	r5, r1
   84d1c:	4c08      	ldr	r4, [pc, #32]	; (84d40 <_write_r+0x28>)
   84d1e:	4611      	mov	r1, r2
   84d20:	4606      	mov	r6, r0
   84d22:	461a      	mov	r2, r3
   84d24:	4628      	mov	r0, r5
   84d26:	2300      	movs	r3, #0
   84d28:	6023      	str	r3, [r4, #0]
   84d2a:	f7fb fee7 	bl	80afc <_write>
   84d2e:	1c43      	adds	r3, r0, #1
   84d30:	d000      	beq.n	84d34 <_write_r+0x1c>
   84d32:	bd70      	pop	{r4, r5, r6, pc}
   84d34:	6823      	ldr	r3, [r4, #0]
   84d36:	2b00      	cmp	r3, #0
   84d38:	d0fb      	beq.n	84d32 <_write_r+0x1a>
   84d3a:	6033      	str	r3, [r6, #0]
   84d3c:	bd70      	pop	{r4, r5, r6, pc}
   84d3e:	bf00      	nop
   84d40:	20000cb8 	.word	0x20000cb8

00084d44 <__register_exitproc>:
   84d44:	e92d 47f0 	stmdb	sp!, {r4, r5, r6, r7, r8, r9, sl, lr}
   84d48:	4c25      	ldr	r4, [pc, #148]	; (84de0 <__register_exitproc+0x9c>)
   84d4a:	4606      	mov	r6, r0
   84d4c:	6825      	ldr	r5, [r4, #0]
   84d4e:	4688      	mov	r8, r1
   84d50:	f8d5 4148 	ldr.w	r4, [r5, #328]	; 0x148
   84d54:	4692      	mov	sl, r2
   84d56:	4699      	mov	r9, r3
   84d58:	b3c4      	cbz	r4, 84dcc <__register_exitproc+0x88>
   84d5a:	6860      	ldr	r0, [r4, #4]
   84d5c:	281f      	cmp	r0, #31
   84d5e:	dc17      	bgt.n	84d90 <__register_exitproc+0x4c>
   84d60:	1c41      	adds	r1, r0, #1
   84d62:	b176      	cbz	r6, 84d82 <__register_exitproc+0x3e>
   84d64:	eb04 0380 	add.w	r3, r4, r0, lsl #2
   84d68:	f8c3 a088 	str.w	sl, [r3, #136]	; 0x88
   84d6c:	f8d4 5188 	ldr.w	r5, [r4, #392]	; 0x188
   84d70:	2201      	movs	r2, #1
   84d72:	4082      	lsls	r2, r0
   84d74:	4315      	orrs	r5, r2
   84d76:	2e02      	cmp	r6, #2
   84d78:	f8c4 5188 	str.w	r5, [r4, #392]	; 0x188
   84d7c:	f8c3 9108 	str.w	r9, [r3, #264]	; 0x108
   84d80:	d01e      	beq.n	84dc0 <__register_exitproc+0x7c>
   84d82:	1c83      	adds	r3, r0, #2
   84d84:	6061      	str	r1, [r4, #4]
   84d86:	2000      	movs	r0, #0
   84d88:	f844 8023 	str.w	r8, [r4, r3, lsl #2]
   84d8c:	e8bd 87f0 	ldmia.w	sp!, {r4, r5, r6, r7, r8, r9, sl, pc}
   84d90:	4b14      	ldr	r3, [pc, #80]	; (84de4 <__register_exitproc+0xa0>)
   84d92:	b303      	cbz	r3, 84dd6 <__register_exitproc+0x92>
   84d94:	f44f 70c8 	mov.w	r0, #400	; 0x190
   84d98:	f7ff f918 	bl	83fcc <malloc>
   84d9c:	4604      	mov	r4, r0
   84d9e:	b1d0      	cbz	r0, 84dd6 <__register_exitproc+0x92>
   84da0:	f8d5 3148 	ldr.w	r3, [r5, #328]	; 0x148
   84da4:	2700      	movs	r7, #0
   84da6:	e884 0088 	stmia.w	r4, {r3, r7}
   84daa:	4638      	mov	r0, r7
   84dac:	f8c5 4148 	str.w	r4, [r5, #328]	; 0x148
   84db0:	2101      	movs	r1, #1
   84db2:	f8c4 7188 	str.w	r7, [r4, #392]	; 0x188
   84db6:	f8c4 718c 	str.w	r7, [r4, #396]	; 0x18c
   84dba:	2e00      	cmp	r6, #0
   84dbc:	d0e1      	beq.n	84d82 <__register_exitproc+0x3e>
   84dbe:	e7d1      	b.n	84d64 <__register_exitproc+0x20>
   84dc0:	f8d4 318c 	ldr.w	r3, [r4, #396]	; 0x18c
   84dc4:	431a      	orrs	r2, r3
   84dc6:	f8c4 218c 	str.w	r2, [r4, #396]	; 0x18c
   84dca:	e7da      	b.n	84d82 <__register_exitproc+0x3e>
   84dcc:	f505 74a6 	add.w	r4, r5, #332	; 0x14c
   84dd0:	f8c5 4148 	str.w	r4, [r5, #328]	; 0x148
   84dd4:	e7c1      	b.n	84d5a <__register_exitproc+0x16>
   84dd6:	f04f 30ff 	mov.w	r0, #4294967295
   84dda:	e8bd 87f0 	ldmia.w	sp!, {r4, r5, r6, r7, r8, r9, sl, pc}
   84dde:	bf00      	nop
   84de0:	00085be0 	.word	0x00085be0
   84de4:	00083fcd 	.word	0x00083fcd

00084de8 <_close_r>:
   84de8:	b538      	push	{r3, r4, r5, lr}
   84dea:	4c07      	ldr	r4, [pc, #28]	; (84e08 <_close_r+0x20>)
   84dec:	2300      	movs	r3, #0
   84dee:	4605      	mov	r5, r0
   84df0:	4608      	mov	r0, r1
   84df2:	6023      	str	r3, [r4, #0]
   84df4:	f7fd f96c 	bl	820d0 <_close>
   84df8:	1c43      	adds	r3, r0, #1
   84dfa:	d000      	beq.n	84dfe <_close_r+0x16>
   84dfc:	bd38      	pop	{r3, r4, r5, pc}
   84dfe:	6823      	ldr	r3, [r4, #0]
   84e00:	2b00      	cmp	r3, #0
   84e02:	d0fb      	beq.n	84dfc <_close_r+0x14>
   84e04:	602b      	str	r3, [r5, #0]
   84e06:	bd38      	pop	{r3, r4, r5, pc}
   84e08:	20000cb8 	.word	0x20000cb8

00084e0c <_fclose_r>:
   84e0c:	2900      	cmp	r1, #0
   84e0e:	d03d      	beq.n	84e8c <_fclose_r+0x80>
   84e10:	b570      	push	{r4, r5, r6, lr}
   84e12:	4605      	mov	r5, r0
   84e14:	460c      	mov	r4, r1
   84e16:	b108      	cbz	r0, 84e1c <_fclose_r+0x10>
   84e18:	6b83      	ldr	r3, [r0, #56]	; 0x38
   84e1a:	b37b      	cbz	r3, 84e7c <_fclose_r+0x70>
   84e1c:	f9b4 300c 	ldrsh.w	r3, [r4, #12]
   84e20:	b90b      	cbnz	r3, 84e26 <_fclose_r+0x1a>
   84e22:	2000      	movs	r0, #0
   84e24:	bd70      	pop	{r4, r5, r6, pc}
   84e26:	4621      	mov	r1, r4
   84e28:	4628      	mov	r0, r5
   84e2a:	f7fe fbbd 	bl	835a8 <__sflush_r>
   84e2e:	6ae3      	ldr	r3, [r4, #44]	; 0x2c
   84e30:	4606      	mov	r6, r0
   84e32:	b133      	cbz	r3, 84e42 <_fclose_r+0x36>
   84e34:	69e1      	ldr	r1, [r4, #28]
   84e36:	4628      	mov	r0, r5
   84e38:	4798      	blx	r3
   84e3a:	2800      	cmp	r0, #0
   84e3c:	bfb8      	it	lt
   84e3e:	f04f 36ff 	movlt.w	r6, #4294967295
   84e42:	89a3      	ldrh	r3, [r4, #12]
   84e44:	061b      	lsls	r3, r3, #24
   84e46:	d41c      	bmi.n	84e82 <_fclose_r+0x76>
   84e48:	6b21      	ldr	r1, [r4, #48]	; 0x30
   84e4a:	b141      	cbz	r1, 84e5e <_fclose_r+0x52>
   84e4c:	f104 0340 	add.w	r3, r4, #64	; 0x40
   84e50:	4299      	cmp	r1, r3
   84e52:	d002      	beq.n	84e5a <_fclose_r+0x4e>
   84e54:	4628      	mov	r0, r5
   84e56:	f7fe fda7 	bl	839a8 <_free_r>
   84e5a:	2300      	movs	r3, #0
   84e5c:	6323      	str	r3, [r4, #48]	; 0x30
   84e5e:	6c61      	ldr	r1, [r4, #68]	; 0x44
   84e60:	b121      	cbz	r1, 84e6c <_fclose_r+0x60>
   84e62:	4628      	mov	r0, r5
   84e64:	f7fe fda0 	bl	839a8 <_free_r>
   84e68:	2300      	movs	r3, #0
   84e6a:	6463      	str	r3, [r4, #68]	; 0x44
   84e6c:	f7fe fcda 	bl	83824 <__sfp_lock_acquire>
   84e70:	2300      	movs	r3, #0
   84e72:	81a3      	strh	r3, [r4, #12]
   84e74:	f7fe fcd8 	bl	83828 <__sfp_lock_release>
   84e78:	4630      	mov	r0, r6
   84e7a:	bd70      	pop	{r4, r5, r6, pc}
   84e7c:	f7fe fccc 	bl	83818 <__sinit>
   84e80:	e7cc      	b.n	84e1c <_fclose_r+0x10>
   84e82:	6921      	ldr	r1, [r4, #16]
   84e84:	4628      	mov	r0, r5
   84e86:	f7fe fd8f 	bl	839a8 <_free_r>
   84e8a:	e7dd      	b.n	84e48 <_fclose_r+0x3c>
   84e8c:	2000      	movs	r0, #0
   84e8e:	4770      	bx	lr

00084e90 <_fstat_r>:
   84e90:	b538      	push	{r3, r4, r5, lr}
   84e92:	460b      	mov	r3, r1
   84e94:	4c07      	ldr	r4, [pc, #28]	; (84eb4 <_fstat_r+0x24>)
   84e96:	4605      	mov	r5, r0
   84e98:	4611      	mov	r1, r2
   84e9a:	4618      	mov	r0, r3
   84e9c:	2300      	movs	r3, #0
   84e9e:	6023      	str	r3, [r4, #0]
   84ea0:	f7fd f91a 	bl	820d8 <_fstat>
   84ea4:	1c43      	adds	r3, r0, #1
   84ea6:	d000      	beq.n	84eaa <_fstat_r+0x1a>
   84ea8:	bd38      	pop	{r3, r4, r5, pc}
   84eaa:	6823      	ldr	r3, [r4, #0]
   84eac:	2b00      	cmp	r3, #0
   84eae:	d0fb      	beq.n	84ea8 <_fstat_r+0x18>
   84eb0:	602b      	str	r3, [r5, #0]
   84eb2:	bd38      	pop	{r3, r4, r5, pc}
   84eb4:	20000cb8 	.word	0x20000cb8

00084eb8 <_isatty_r>:
   84eb8:	b538      	push	{r3, r4, r5, lr}
   84eba:	4c07      	ldr	r4, [pc, #28]	; (84ed8 <_isatty_r+0x20>)
   84ebc:	2300      	movs	r3, #0
   84ebe:	4605      	mov	r5, r0
   84ec0:	4608      	mov	r0, r1
   84ec2:	6023      	str	r3, [r4, #0]
   84ec4:	f7fd f90e 	bl	820e4 <_isatty>
   84ec8:	1c43      	adds	r3, r0, #1
   84eca:	d000      	beq.n	84ece <_isatty_r+0x16>
   84ecc:	bd38      	pop	{r3, r4, r5, pc}
   84ece:	6823      	ldr	r3, [r4, #0]
   84ed0:	2b00      	cmp	r3, #0
   84ed2:	d0fb      	beq.n	84ecc <_isatty_r+0x14>
   84ed4:	602b      	str	r3, [r5, #0]
   84ed6:	bd38      	pop	{r3, r4, r5, pc}
   84ed8:	20000cb8 	.word	0x20000cb8

00084edc <_lseek_r>:
   84edc:	b570      	push	{r4, r5, r6, lr}
   84ede:	460d      	mov	r5, r1
   84ee0:	4c08      	ldr	r4, [pc, #32]	; (84f04 <_lseek_r+0x28>)
   84ee2:	4611      	mov	r1, r2
   84ee4:	4606      	mov	r6, r0
   84ee6:	461a      	mov	r2, r3
   84ee8:	4628      	mov	r0, r5
   84eea:	2300      	movs	r3, #0
   84eec:	6023      	str	r3, [r4, #0]
   84eee:	f7fd f8fb 	bl	820e8 <_lseek>
   84ef2:	1c43      	adds	r3, r0, #1
   84ef4:	d000      	beq.n	84ef8 <_lseek_r+0x1c>
   84ef6:	bd70      	pop	{r4, r5, r6, pc}
   84ef8:	6823      	ldr	r3, [r4, #0]
   84efa:	2b00      	cmp	r3, #0
   84efc:	d0fb      	beq.n	84ef6 <_lseek_r+0x1a>
   84efe:	6033      	str	r3, [r6, #0]
   84f00:	bd70      	pop	{r4, r5, r6, pc}
   84f02:	bf00      	nop
   84f04:	20000cb8 	.word	0x20000cb8

00084f08 <_read_r>:
   84f08:	b570      	push	{r4, r5, r6, lr}
   84f0a:	460d      	mov	r5, r1
   84f0c:	4c08      	ldr	r4, [pc, #32]	; (84f30 <_read_r+0x28>)
   84f0e:	4611      	mov	r1, r2
   84f10:	4606      	mov	r6, r0
   84f12:	461a      	mov	r2, r3
   84f14:	4628      	mov	r0, r5
   84f16:	2300      	movs	r3, #0
   84f18:	6023      	str	r3, [r4, #0]
   84f1a:	f7fb fdd1 	bl	80ac0 <_read>
   84f1e:	1c43      	adds	r3, r0, #1
   84f20:	d000      	beq.n	84f24 <_read_r+0x1c>
   84f22:	bd70      	pop	{r4, r5, r6, pc}
   84f24:	6823      	ldr	r3, [r4, #0]
   84f26:	2b00      	cmp	r3, #0
   84f28:	d0fb      	beq.n	84f22 <_read_r+0x1a>
   84f2a:	6033      	str	r3, [r6, #0]
   84f2c:	bd70      	pop	{r4, r5, r6, pc}
   84f2e:	bf00      	nop
   84f30:	20000cb8 	.word	0x20000cb8

00084f34 <__aeabi_uldivmod>:
   84f34:	b953      	cbnz	r3, 84f4c <__aeabi_uldivmod+0x18>
   84f36:	b94a      	cbnz	r2, 84f4c <__aeabi_uldivmod+0x18>
   84f38:	2900      	cmp	r1, #0
   84f3a:	bf08      	it	eq
   84f3c:	2800      	cmpeq	r0, #0
   84f3e:	bf1c      	itt	ne
   84f40:	f04f 31ff 	movne.w	r1, #4294967295
   84f44:	f04f 30ff 	movne.w	r0, #4294967295
   84f48:	f000 b982 	b.w	85250 <__aeabi_idiv0>
   84f4c:	f1ad 0c08 	sub.w	ip, sp, #8
   84f50:	e96d ce04 	strd	ip, lr, [sp, #-16]!
   84f54:	f000 f806 	bl	84f64 <__udivmoddi4>
   84f58:	f8dd e004 	ldr.w	lr, [sp, #4]
   84f5c:	e9dd 2302 	ldrd	r2, r3, [sp, #8]
   84f60:	b004      	add	sp, #16
   84f62:	4770      	bx	lr

00084f64 <__udivmoddi4>:
   84f64:	e92d 4ff0 	stmdb	sp!, {r4, r5, r6, r7, r8, r9, sl, fp, lr}
   84f68:	468c      	mov	ip, r1
   84f6a:	460c      	mov	r4, r1
   84f6c:	4605      	mov	r5, r0
   84f6e:	9e09      	ldr	r6, [sp, #36]	; 0x24
   84f70:	2b00      	cmp	r3, #0
   84f72:	d14f      	bne.n	85014 <__udivmoddi4+0xb0>
   84f74:	428a      	cmp	r2, r1
   84f76:	4617      	mov	r7, r2
   84f78:	d96b      	bls.n	85052 <__udivmoddi4+0xee>
   84f7a:	fab2 fe82 	clz	lr, r2
   84f7e:	f1be 0f00 	cmp.w	lr, #0
   84f82:	d00b      	beq.n	84f9c <__udivmoddi4+0x38>
   84f84:	f1ce 0520 	rsb	r5, lr, #32
   84f88:	fa20 f505 	lsr.w	r5, r0, r5
   84f8c:	fa01 f30e 	lsl.w	r3, r1, lr
   84f90:	ea45 0c03 	orr.w	ip, r5, r3
   84f94:	fa02 f70e 	lsl.w	r7, r2, lr
   84f98:	fa00 f50e 	lsl.w	r5, r0, lr
   84f9c:	0c39      	lsrs	r1, r7, #16
   84f9e:	fbbc f0f1 	udiv	r0, ip, r1
   84fa2:	b2ba      	uxth	r2, r7
   84fa4:	fb01 c310 	mls	r3, r1, r0, ip
   84fa8:	fb00 f802 	mul.w	r8, r0, r2
   84fac:	ea4f 4c15 	mov.w	ip, r5, lsr #16
   84fb0:	ea4c 4403 	orr.w	r4, ip, r3, lsl #16
   84fb4:	45a0      	cmp	r8, r4
   84fb6:	d909      	bls.n	84fcc <__udivmoddi4+0x68>
   84fb8:	19e4      	adds	r4, r4, r7
   84fba:	f100 33ff 	add.w	r3, r0, #4294967295
   84fbe:	f080 8128 	bcs.w	85212 <__udivmoddi4+0x2ae>
   84fc2:	45a0      	cmp	r8, r4
   84fc4:	f240 8125 	bls.w	85212 <__udivmoddi4+0x2ae>
   84fc8:	3802      	subs	r0, #2
   84fca:	443c      	add	r4, r7
   84fcc:	ebc8 0404 	rsb	r4, r8, r4
   84fd0:	fbb4 f3f1 	udiv	r3, r4, r1
   84fd4:	fb01 4c13 	mls	ip, r1, r3, r4
   84fd8:	fb03 f202 	mul.w	r2, r3, r2
   84fdc:	b2ac      	uxth	r4, r5
   84fde:	ea44 410c 	orr.w	r1, r4, ip, lsl #16
   84fe2:	428a      	cmp	r2, r1
   84fe4:	d909      	bls.n	84ffa <__udivmoddi4+0x96>
   84fe6:	19c9      	adds	r1, r1, r7
   84fe8:	f103 34ff 	add.w	r4, r3, #4294967295
   84fec:	f080 810f 	bcs.w	8520e <__udivmoddi4+0x2aa>
   84ff0:	428a      	cmp	r2, r1
   84ff2:	f240 810c 	bls.w	8520e <__udivmoddi4+0x2aa>
   84ff6:	3b02      	subs	r3, #2
   84ff8:	4439      	add	r1, r7
   84ffa:	1a8a      	subs	r2, r1, r2
   84ffc:	ea43 4000 	orr.w	r0, r3, r0, lsl #16
   85000:	2100      	movs	r1, #0
   85002:	2e00      	cmp	r6, #0
   85004:	d063      	beq.n	850ce <__udivmoddi4+0x16a>
   85006:	fa22 f20e 	lsr.w	r2, r2, lr
   8500a:	2300      	movs	r3, #0
   8500c:	e886 000c 	stmia.w	r6, {r2, r3}
   85010:	e8bd 8ff0 	ldmia.w	sp!, {r4, r5, r6, r7, r8, r9, sl, fp, pc}
   85014:	428b      	cmp	r3, r1
   85016:	d907      	bls.n	85028 <__udivmoddi4+0xc4>
   85018:	2e00      	cmp	r6, #0
   8501a:	d056      	beq.n	850ca <__udivmoddi4+0x166>
   8501c:	2100      	movs	r1, #0
   8501e:	e886 0011 	stmia.w	r6, {r0, r4}
   85022:	4608      	mov	r0, r1
   85024:	e8bd 8ff0 	ldmia.w	sp!, {r4, r5, r6, r7, r8, r9, sl, fp, pc}
   85028:	fab3 f183 	clz	r1, r3
   8502c:	2900      	cmp	r1, #0
   8502e:	f040 8093 	bne.w	85158 <__udivmoddi4+0x1f4>
   85032:	42a3      	cmp	r3, r4
   85034:	d302      	bcc.n	8503c <__udivmoddi4+0xd8>
   85036:	4282      	cmp	r2, r0
   85038:	f200 80fe 	bhi.w	85238 <__udivmoddi4+0x2d4>
   8503c:	1a85      	subs	r5, r0, r2
   8503e:	eb64 0303 	sbc.w	r3, r4, r3
   85042:	469c      	mov	ip, r3
   85044:	2001      	movs	r0, #1
   85046:	2e00      	cmp	r6, #0
   85048:	d041      	beq.n	850ce <__udivmoddi4+0x16a>
   8504a:	e886 1020 	stmia.w	r6, {r5, ip}
   8504e:	e8bd 8ff0 	ldmia.w	sp!, {r4, r5, r6, r7, r8, r9, sl, fp, pc}
   85052:	b912      	cbnz	r2, 8505a <__udivmoddi4+0xf6>
   85054:	2701      	movs	r7, #1
   85056:	fbb7 f7f2 	udiv	r7, r7, r2
   8505a:	fab7 fe87 	clz	lr, r7
   8505e:	f1be 0f00 	cmp.w	lr, #0
   85062:	d136      	bne.n	850d2 <__udivmoddi4+0x16e>
   85064:	1be4      	subs	r4, r4, r7
   85066:	ea4f 4817 	mov.w	r8, r7, lsr #16
   8506a:	fa1f f987 	uxth.w	r9, r7
   8506e:	2101      	movs	r1, #1
   85070:	fbb4 f3f8 	udiv	r3, r4, r8
   85074:	fb08 4413 	mls	r4, r8, r3, r4
   85078:	fb09 f203 	mul.w	r2, r9, r3
   8507c:	ea4f 4c15 	mov.w	ip, r5, lsr #16
   85080:	ea4c 4404 	orr.w	r4, ip, r4, lsl #16
   85084:	42a2      	cmp	r2, r4
   85086:	d907      	bls.n	85098 <__udivmoddi4+0x134>
   85088:	19e4      	adds	r4, r4, r7
   8508a:	f103 30ff 	add.w	r0, r3, #4294967295
   8508e:	d202      	bcs.n	85096 <__udivmoddi4+0x132>
   85090:	42a2      	cmp	r2, r4
   85092:	f200 80d3 	bhi.w	8523c <__udivmoddi4+0x2d8>
   85096:	4603      	mov	r3, r0
   85098:	1aa4      	subs	r4, r4, r2
   8509a:	fbb4 f0f8 	udiv	r0, r4, r8
   8509e:	fb08 4810 	mls	r8, r8, r0, r4
   850a2:	fb09 f900 	mul.w	r9, r9, r0
   850a6:	b2ac      	uxth	r4, r5
   850a8:	ea44 4208 	orr.w	r2, r4, r8, lsl #16
   850ac:	4591      	cmp	r9, r2
   850ae:	d907      	bls.n	850c0 <__udivmoddi4+0x15c>
   850b0:	19d2      	adds	r2, r2, r7
   850b2:	f100 34ff 	add.w	r4, r0, #4294967295
   850b6:	d202      	bcs.n	850be <__udivmoddi4+0x15a>
   850b8:	4591      	cmp	r9, r2
   850ba:	f200 80ba 	bhi.w	85232 <__udivmoddi4+0x2ce>
   850be:	4620      	mov	r0, r4
   850c0:	ebc9 0202 	rsb	r2, r9, r2
   850c4:	ea40 4003 	orr.w	r0, r0, r3, lsl #16
   850c8:	e79b      	b.n	85002 <__udivmoddi4+0x9e>
   850ca:	4631      	mov	r1, r6
   850cc:	4630      	mov	r0, r6
   850ce:	e8bd 8ff0 	ldmia.w	sp!, {r4, r5, r6, r7, r8, r9, sl, fp, pc}
   850d2:	fa07 f70e 	lsl.w	r7, r7, lr
   850d6:	f1ce 0c20 	rsb	ip, lr, #32
   850da:	fa24 f30c 	lsr.w	r3, r4, ip
   850de:	ea4f 4817 	mov.w	r8, r7, lsr #16
   850e2:	fbb3 faf8 	udiv	sl, r3, r8
   850e6:	fa1f f987 	uxth.w	r9, r7
   850ea:	fb08 351a 	mls	r5, r8, sl, r3
   850ee:	fa20 fc0c 	lsr.w	ip, r0, ip
   850f2:	fa04 f40e 	lsl.w	r4, r4, lr
   850f6:	fb0a fb09 	mul.w	fp, sl, r9
   850fa:	ea4c 0c04 	orr.w	ip, ip, r4
   850fe:	ea4f 421c 	mov.w	r2, ip, lsr #16
   85102:	ea42 4305 	orr.w	r3, r2, r5, lsl #16
   85106:	459b      	cmp	fp, r3
   85108:	fa00 f50e 	lsl.w	r5, r0, lr
   8510c:	d90a      	bls.n	85124 <__udivmoddi4+0x1c0>
   8510e:	19db      	adds	r3, r3, r7
   85110:	f10a 32ff 	add.w	r2, sl, #4294967295
   85114:	f080 808b 	bcs.w	8522e <__udivmoddi4+0x2ca>
   85118:	459b      	cmp	fp, r3
   8511a:	f240 8088 	bls.w	8522e <__udivmoddi4+0x2ca>
   8511e:	f1aa 0a02 	sub.w	sl, sl, #2
   85122:	443b      	add	r3, r7
   85124:	ebcb 0303 	rsb	r3, fp, r3
   85128:	fbb3 f0f8 	udiv	r0, r3, r8
   8512c:	fb08 3310 	mls	r3, r8, r0, r3
   85130:	fb00 f409 	mul.w	r4, r0, r9
   85134:	fa1f fc8c 	uxth.w	ip, ip
   85138:	ea4c 4303 	orr.w	r3, ip, r3, lsl #16
   8513c:	429c      	cmp	r4, r3
   8513e:	d907      	bls.n	85150 <__udivmoddi4+0x1ec>
   85140:	19db      	adds	r3, r3, r7
   85142:	f100 32ff 	add.w	r2, r0, #4294967295
   85146:	d26e      	bcs.n	85226 <__udivmoddi4+0x2c2>
   85148:	429c      	cmp	r4, r3
   8514a:	d96c      	bls.n	85226 <__udivmoddi4+0x2c2>
   8514c:	3802      	subs	r0, #2
   8514e:	443b      	add	r3, r7
   85150:	1b1c      	subs	r4, r3, r4
   85152:	ea40 410a 	orr.w	r1, r0, sl, lsl #16
   85156:	e78b      	b.n	85070 <__udivmoddi4+0x10c>
   85158:	f1c1 0e20 	rsb	lr, r1, #32
   8515c:	408b      	lsls	r3, r1
   8515e:	fa22 fc0e 	lsr.w	ip, r2, lr
   85162:	ea4c 0c03 	orr.w	ip, ip, r3
   85166:	fa24 f70e 	lsr.w	r7, r4, lr
   8516a:	ea4f 491c 	mov.w	r9, ip, lsr #16
   8516e:	fbb7 faf9 	udiv	sl, r7, r9
   85172:	fa1f f38c 	uxth.w	r3, ip
   85176:	fb09 771a 	mls	r7, r9, sl, r7
   8517a:	fa20 f80e 	lsr.w	r8, r0, lr
   8517e:	408c      	lsls	r4, r1
   85180:	fb0a f503 	mul.w	r5, sl, r3
   85184:	ea48 0404 	orr.w	r4, r8, r4
   85188:	ea4f 4814 	mov.w	r8, r4, lsr #16
   8518c:	ea48 4707 	orr.w	r7, r8, r7, lsl #16
   85190:	42bd      	cmp	r5, r7
   85192:	fa02 f201 	lsl.w	r2, r2, r1
   85196:	fa00 fb01 	lsl.w	fp, r0, r1
   8519a:	d909      	bls.n	851b0 <__udivmoddi4+0x24c>
   8519c:	eb17 070c 	adds.w	r7, r7, ip
   851a0:	f10a 30ff 	add.w	r0, sl, #4294967295
   851a4:	d241      	bcs.n	8522a <__udivmoddi4+0x2c6>
   851a6:	42bd      	cmp	r5, r7
   851a8:	d93f      	bls.n	8522a <__udivmoddi4+0x2c6>
   851aa:	f1aa 0a02 	sub.w	sl, sl, #2
   851ae:	4467      	add	r7, ip
   851b0:	1b7f      	subs	r7, r7, r5
   851b2:	fbb7 f5f9 	udiv	r5, r7, r9
   851b6:	fb09 7715 	mls	r7, r9, r5, r7
   851ba:	fb05 f303 	mul.w	r3, r5, r3
   851be:	b2a4      	uxth	r4, r4
   851c0:	ea44 4707 	orr.w	r7, r4, r7, lsl #16
   851c4:	42bb      	cmp	r3, r7
   851c6:	d908      	bls.n	851da <__udivmoddi4+0x276>
   851c8:	eb17 070c 	adds.w	r7, r7, ip
   851cc:	f105 30ff 	add.w	r0, r5, #4294967295
   851d0:	d227      	bcs.n	85222 <__udivmoddi4+0x2be>
   851d2:	42bb      	cmp	r3, r7
   851d4:	d925      	bls.n	85222 <__udivmoddi4+0x2be>
   851d6:	3d02      	subs	r5, #2
   851d8:	4467      	add	r7, ip
   851da:	ea45 400a 	orr.w	r0, r5, sl, lsl #16
   851de:	fba0 8902 	umull	r8, r9, r0, r2
   851e2:	1aff      	subs	r7, r7, r3
   851e4:	454f      	cmp	r7, r9
   851e6:	4645      	mov	r5, r8
   851e8:	464c      	mov	r4, r9
   851ea:	d314      	bcc.n	85216 <__udivmoddi4+0x2b2>
   851ec:	d029      	beq.n	85242 <__udivmoddi4+0x2de>
   851ee:	b366      	cbz	r6, 8524a <__udivmoddi4+0x2e6>
   851f0:	ebbb 0305 	subs.w	r3, fp, r5
   851f4:	eb67 0704 	sbc.w	r7, r7, r4
   851f8:	fa07 fe0e 	lsl.w	lr, r7, lr
   851fc:	40cb      	lsrs	r3, r1
   851fe:	40cf      	lsrs	r7, r1
   85200:	ea4e 0303 	orr.w	r3, lr, r3
   85204:	e886 0088 	stmia.w	r6, {r3, r7}
   85208:	2100      	movs	r1, #0
   8520a:	e8bd 8ff0 	ldmia.w	sp!, {r4, r5, r6, r7, r8, r9, sl, fp, pc}
   8520e:	4623      	mov	r3, r4
   85210:	e6f3      	b.n	84ffa <__udivmoddi4+0x96>
   85212:	4618      	mov	r0, r3
   85214:	e6da      	b.n	84fcc <__udivmoddi4+0x68>
   85216:	ebb8 0502 	subs.w	r5, r8, r2
   8521a:	eb69 040c 	sbc.w	r4, r9, ip
   8521e:	3801      	subs	r0, #1
   85220:	e7e5      	b.n	851ee <__udivmoddi4+0x28a>
   85222:	4605      	mov	r5, r0
   85224:	e7d9      	b.n	851da <__udivmoddi4+0x276>
   85226:	4610      	mov	r0, r2
   85228:	e792      	b.n	85150 <__udivmoddi4+0x1ec>
   8522a:	4682      	mov	sl, r0
   8522c:	e7c0      	b.n	851b0 <__udivmoddi4+0x24c>
   8522e:	4692      	mov	sl, r2
   85230:	e778      	b.n	85124 <__udivmoddi4+0x1c0>
   85232:	3802      	subs	r0, #2
   85234:	443a      	add	r2, r7
   85236:	e743      	b.n	850c0 <__udivmoddi4+0x15c>
   85238:	4608      	mov	r0, r1
   8523a:	e704      	b.n	85046 <__udivmoddi4+0xe2>
   8523c:	3b02      	subs	r3, #2
   8523e:	443c      	add	r4, r7
   85240:	e72a      	b.n	85098 <__udivmoddi4+0x134>
   85242:	45c3      	cmp	fp, r8
   85244:	d3e7      	bcc.n	85216 <__udivmoddi4+0x2b2>
   85246:	463c      	mov	r4, r7
   85248:	e7d1      	b.n	851ee <__udivmoddi4+0x28a>
   8524a:	4631      	mov	r1, r6
   8524c:	e8bd 8ff0 	ldmia.w	sp!, {r4, r5, r6, r7, r8, r9, sl, fp, pc}

00085250 <__aeabi_idiv0>:
   85250:	4770      	bx	lr
   85252:	bf00      	nop
   85254:	00000037 	.word	0x00000037
   85258:	00000038 	.word	0x00000038
   8525c:	00000039 	.word	0x00000039
   85260:	00000058 	.word	0x00000058
   85264:	00000034 	.word	0x00000034
   85268:	00000035 	.word	0x00000035
   8526c:	00000036 	.word	0x00000036
   85270:	0000002f 	.word	0x0000002f
   85274:	00000031 	.word	0x00000031
   85278:	00000032 	.word	0x00000032
   8527c:	00000033 	.word	0x00000033
   85280:	0000002d 	.word	0x0000002d
   85284:	00000043 	.word	0x00000043
   85288:	00000030 	.word	0x00000030
   8528c:	0000003d 	.word	0x0000003d
   85290:	0000002b 	.word	0x0000002b
   85294:	206e6550 	.word	0x206e6550
   85298:	65766f6d 	.word	0x65766f6d
   8529c:	74612064 	.word	0x74612064
   852a0:	20202020 	.word	0x20202020
   852a4:	30252820 	.word	0x30252820
   852a8:	202c7533 	.word	0x202c7533
   852ac:	75333025 	.word	0x75333025
   852b0:	000d0a29 	.word	0x000d0a29
   852b4:	206e6550 	.word	0x206e6550
   852b8:	73657270 	.word	0x73657270
   852bc:	20646573 	.word	0x20646573
   852c0:	20207461 	.word	0x20207461
   852c4:	30252820 	.word	0x30252820
   852c8:	202c7533 	.word	0x202c7533
   852cc:	75333025 	.word	0x75333025
   852d0:	000d0a29 	.word	0x000d0a29
   852d4:	206e6550 	.word	0x206e6550
   852d8:	656c6572 	.word	0x656c6572
   852dc:	64657361 	.word	0x64657361
   852e0:	20746120 	.word	0x20746120
   852e4:	30252820 	.word	0x30252820
   852e8:	202c7533 	.word	0x202c7533
   852ec:	75333025 	.word	0x75333025
   852f0:	000d0a29 	.word	0x000d0a29
   852f4:	53202d2d 	.word	0x53202d2d
   852f8:	545f4950 	.word	0x545f4950
   852fc:	6863756f 	.word	0x6863756f
   85300:	65726373 	.word	0x65726373
   85304:	45206e65 	.word	0x45206e65
   85308:	706d6178 	.word	0x706d6178
   8530c:	2d20656c 	.word	0x2d20656c
   85310:	2d0a0d2d 	.word	0x2d0a0d2d
   85314:	4153202d 	.word	0x4153202d
   85318:	2d55334d 	.word	0x2d55334d
   8531c:	2d204b45 	.word	0x2d204b45
   85320:	2d0a0d2d 	.word	0x2d0a0d2d
   85324:	6f43202d 	.word	0x6f43202d
   85328:	6c69706d 	.word	0x6c69706d
   8532c:	203a6465 	.word	0x203a6465
   85330:	20636544 	.word	0x20636544
   85334:	32203431 	.word	0x32203431
   85338:	20373130 	.word	0x20373130
   8533c:	343a3231 	.word	0x343a3231
   85340:	32313a38 	.word	0x32313a38
   85344:	0d2d2d20 	.word	0x0d2d2d20
   85348:	00000000 	.word	0x00000000
   8534c:	666e6f43 	.word	0x666e6f43
   85350:	72756769 	.word	0x72756769
   85354:	79732065 	.word	0x79732065
   85358:	6d657473 	.word	0x6d657473
   8535c:	63697420 	.word	0x63697420
   85360:	6f74206b 	.word	0x6f74206b
   85364:	74656720 	.word	0x74656720
   85368:	736d3120 	.word	0x736d3120
   8536c:	63697420 	.word	0x63697420
   85370:	6570206b 	.word	0x6570206b
   85374:	646f6972 	.word	0x646f6972
   85378:	00000d2e 	.word	0x00000d2e
   8537c:	696c6143 	.word	0x696c6143
   85380:	74617262 	.word	0x74617262
   85384:	206e6f69 	.word	0x206e6f69
   85388:	63637573 	.word	0x63637573
   8538c:	66737365 	.word	0x66737365
   85390:	21206c75 	.word	0x21206c75
   85394:	0000000d 	.word	0x0000000d
   85398:	696c6143 	.word	0x696c6143
   8539c:	74617262 	.word	0x74617262
   853a0:	206e6f69 	.word	0x206e6f69
   853a4:	6c696166 	.word	0x6c696166
   853a8:	203b6465 	.word	0x203b6465
   853ac:	6f727265 	.word	0x6f727265
   853b0:	65642072 	.word	0x65642072
   853b4:	2061746c 	.word	0x2061746c
   853b8:	74207369 	.word	0x74207369
   853bc:	62206f6f 	.word	0x62206f6f
   853c0:	21206769 	.word	0x21206769
   853c4:	656c5020 	.word	0x656c5020
   853c8:	20657361 	.word	0x20657361
   853cc:	72746572 	.word	0x72746572
   853d0:	61632079 	.word	0x61632079
   853d4:	7262696c 	.word	0x7262696c
   853d8:	6f697461 	.word	0x6f697461
   853dc:	7270206e 	.word	0x7270206e
   853e0:	6465636f 	.word	0x6465636f
   853e4:	2e657275 	.word	0x2e657275
   853e8:	000d2e2e 	.word	0x000d2e2e

000853ec <p_uc_charset10x14>:
	...
   85408:	ccffccff 00000000 00000000 00000000     ................
   85418:	00f000f0 00000000 00f000f0 00000000     ................
   85428:	c00cc00c fcfffcff c00cc00c fcfffcff     ................
   85438:	c00cc00c 701e600c 3033303f fcfffcff     .....`.p?030....
   85448:	f0333033 c018e039 0cf00060 f0603cf0     303.9...`....<`.
   85458:	000fc003 3cf0183c 18003cc0 f87ff03c     ....<..<.<..<...
   85468:	8cc71cc3 ecdccccf 30307878 cc00fc00     ........xx00....
   85478:	00000000 00440000 00f800ec 00000070     ......D.....p...
	...
   85490:	f03fc00f 18607878 0cc00cc0 00000000     ..?.xx`.........
   854a0:	00000000 0cc00cc0 78781860 c00ff03f     ........`.xx?...
   854b0:	00000000 e00e600c 8003c007 f83ff83f     .....`......?.?.
   854c0:	c0078003 600ce00e 00030003 00030003     .......`........
   854d0:	f03ff03f 00030003 00030003 ec004400     ?.?..........D..
   854e0:	7000f800 00000000 00000000 00000000     ...p............
   854f0:	00030003 00030003 00030003 00030003     ................
   85500:	00030003 3c001800 18003c00 00000000     .......<.<......
	...
   85518:	0c000000 f0003c00 000fc003 00f0003c     .....<......<...
   85528:	000000c0 f87ff03f ccc1fce0 0cc78cc3     ....?...........
   85538:	1cfc0cce f03ff87f 00000000 0c700c30     ......?.....0.p.
   85548:	fcfffcff 0c000c00 00000000 1c700c30     ............0.p.
   85558:	7cc03ce0 ccc1ecc0 0ce78cc3 0c3c0c7e     .<.|........~.<.
   85568:	38703030 0cc01ce0 0cc30cc0 1ce30cc3     00p8............
   85578:	f03cf87f c007c003 c01cc00e c070c038     ..<.........8.p.
   85588:	fcfffcff c000c000 38fc30fc 0ccc1ccc     .........0.8....
   85598:	0ccc0ccc 1cce0ccc f0c3f8c7 f87ff03f     ............?...
   855a8:	0cc31ce3 0cc30cc3 9ce30cc3 f030f871     ............q.0.
   855b8:	00c000c0 00c000c0 fcc7fcc3 00dc00ce     ................
   855c8:	00f000f8 f87ff03c 0cc39ce7 0cc30cc3     ....<...........
   855d8:	9ce70cc3 f03cf87f 007e003c 0cc30ce7     ......<.<.~.....
   855e8:	38c31cc3 e0e770c3 803fc07f 00000000     ...8.p....?.....
   855f8:	60180000 f03cf03c 00006018 00000000     ...`<.<..`......
   85608:	00000000 44180000 f83cec3c 00007018     .......D<.<..p..
   85618:	00000000 00030000 c00f8007 7038e01c     ..............8p
   85628:	1ce03870 00000cc0 c00cc00c c00cc00c     p8..............
   85638:	c00cc00c c00cc00c c00cc00c 0cc00000     ................
   85648:	38701ce0 e01c7038 8007c00f 00000003     ..p88p..........
   85658:	00700030 00c000e0 ecc3ecc1 00e600c3     0.p.............
   85668:	003c007e f871f030 0cc39ce3 fcc3fcc3     ~.<.0.q.........
   85678:	1ce00cc0 f03ff87f fc7ffc3f c0c0c0e0     ......?.?.......
   85688:	c0c0c0c0 c0e0c0c0 fc3ffc7f fcfffcff     ..........?.....
   85698:	0cc30cc3 0cc30cc3 9ce70cc3 f03cf87f     ..............<.
   856a8:	f87ff03f 0cc01ce0 0cc00cc0 1ce00cc0     ?...............
   856b8:	30303870 fcfffcff 0cc00cc0 0cc00cc0     p800............
   856c8:	1ce00cc0 f03ff87f fcfffcff 0cc30cc3     ......?.........
   856d8:	0cc30cc3 0cc30cc3 0cc00cc0 fcfffcff     ................
   856e8:	00c300c3 00c300c3 00c300c3 00c000c0     ................
   856f8:	f87ff03f 0cc01ce0 0cc30cc0 1ce30cc3     ?...............
   85708:	f033f873 fcfffcff 00030003 00030003     s.3.............
   85718:	00030003 fcfffcff 00000000 0cc00cc0     ................
   85728:	fcfffcff 0cc00cc0 00000000 38003000     .............0.8
   85738:	0cc01cc0 1cc00cc0 f0fff8ff 00c000c0     ................
   85748:	fcfffcff 80078007 e01cc00f 38707038     ............8pp8
   85758:	0cc01ce0 fcfffcff 0c000c00 0c000c00     ................
   85768:	0c000c00 0c000c00 fcfffcff 00380070     ............p.8.
   85778:	001f001f 00700038 fcfffcff fcfffcff     ....8.p.........
   85788:	000e001c 80030007 e000c001 fcfffcff     ................
   85798:	f87ff03f 0cc01ce0 0cc00cc0 1ce00cc0     ?...............
   857a8:	f03ff87f fcfffcff 00c300c3 00c300c3     ..?.............
   857b8:	00e700c3 003c007e f87ff03f 0cc01ce0     ....~.<.?.......
   857c8:	ecc0ccc0 38e07cc0 ec3ffc7f fcfffcff     .....|.8..?.....
   857d8:	80c300c3 c0c380c3 70e7c0c3 1c3c3c7e     ...........p~<<.
   857e8:	1c7e183c 0cc30ce7 0cc30cc3 9cc30cc3     <.~.............
   857f8:	f060f8e1 00c000c0 00c000c0 fcfffcff     ..`.............
   85808:	00c000c0 00c000c0 f8fff0ff 0c001c00     ................
   85818:	0c000c00 1c000c00 f0fff8ff e0ffc0ff     ................
   85828:	38007000 1c001c00 70003800 c0ffe0ff     .p.8.....8.p....
   85838:	f8fff0ff 3c001c00 f800f800 1c003c00     .......<.....<..
   85848:	f0fff8ff 7cf83cf0 c00fe01c 80078007     .....<.|........
   85858:	e01cc00f 3cf07cf8 00fe00fc 80030007     .....|.<........
   85868:	fc01fc01 00078003 00fc00fe 7cc03cc0     .............<.|
   85878:	ccc1ecc0 0cc78cc3 0cdc0cce 0cf00cf8     ................
   85888:	00000000 fcfffcff 0cc00cc0 00000cc0     ................
   85898:	00000000 00300030 000c000c 00030003     ....0.0.........
   858a8:	c000c000 30003000 00000000 0cc00cc0     .....0.0........
   858b8:	fcff0cc0 0000fcff 00000000 001c000c     ................
   858c8:	00700038 00e000e0 00380070 000c001c     8.p.....p.8.....
   858d8:	0c000c00 0c000c00 0c000c00 0c000c00     ................
   858e8:	0c000c00 00000000 00e000c0 00380070     ............p.8.
   858f8:	00000018 00000000 78063000 cc0cfc0e     .........0.x....
   85908:	cc0ccc0c cc0ecc0c f803fc07 fcfffcff     ................
   85918:	0c030c03 0c030c03 9c030c03 f000f801     ................
   85928:	f807f003 0c0c1c0e 0c0c0c0c 1c0e0c0c     ................
   85938:	30033807 f801f000 0c039c03 0c030c03     .8.0............
   85948:	0c030c03 fcfffcff f807f003 cc0cdc0e     ................
   85958:	cc0ccc0c dc0ecc0c 9003d807 00030000     ................
   85968:	fc7ffc3f 00e300e3 00300070 00000000     ?.......p.0.....
   85978:	9c071803 cc0ccc0f cc0ccc0c dc0ccc0c     ................
   85988:	f007f80f fcfffcff 00030003 00030003     ................
   85998:	fc018003 0000fc00 00000000 00000000     ................
   859a8:	fc1bfc1b 00000000 00000000 30000000     ...............0
   859b8:	1c003800 0c000c00 f8cf1c00 0000f0cf     .8..............
   859c8:	fcff0000 e000fcff f003e001 1c0e3807     .............8..
   859d8:	00000c0c 00000000 0cc00cc0 fcfffcff     ................
   859e8:	0c000c00 00000000 fc0ffc0f 0007000e     ................
   859f8:	c003c003 000e0007 fc0ffc0f fc0ffc0f     ................
   85a08:	00070003 000c000e 000e000c fc03fc07     ................
   85a18:	f807f003 0c0c1c0e 0c0c0c0c 1c0e0c0c     ................
   85a28:	f003f807 fc0ffc0f c00cc00c c00cc00c     ................
   85a38:	c00fc00c 00038007 80070003 c00cc00f     ................
   85a48:	c00cc00c c00cc00c fc0ffc0f fc0ffc0f     ................
   85a58:	00078003 000c000e 000e000c 00030007     ................
   85a68:	9c071803 cc0ccc0f cc0ccc0c fc0ccc0c     ................
   85a78:	3006780e 000c0000 f0ff000c 1c0cf8ff     .x.0............
   85a88:	380c1c0c 0000300c f80ff00f 0c001c00     ...8.0..........
   85a98:	0c000c00 1c000c00 f00ff80f e00fc00f     ................
   85aa8:	38007000 1c001c00 70003800 c00fe00f     .p.8.....8.p....
   85ab8:	f80ff00f 1c001c00 f800f800 1c001c00     ................
   85ac8:	f00ff80f 1c0e0c0c f0033807 e001e001     .........8......
   85ad8:	3807f003 0c0c1c0e 000e000c 9c030c07     ...8............
   85ae8:	f001f801 00078003 000c000e 1c0c0c0c     ................
   85af8:	7c0c3c0c cc0dec0c 0c0f8c0f 0c0c0c0e     .<.|............
   85b08:	00030000 f03f8007 1ce0f87c 0cc00cc0     ......?.|.......
   85b18:	00000cc0 0c030c03 fc7ffc3f 0cc30ce3     ........?.......
   85b28:	0ce00cc0 0c300c70 0cc00000 0cc00cc0     ....p.0.........
   85b38:	f87c1ce0 8007f03f 00000003 00c000c0     ..|.?...........
   85b48:	00c000c0 00c000c0 00c000c0 00c000c0     ................
   85b58:	fcfffcff fcfffcff fcfffcff fcfffcff     ................
   85b68:	fcfffcff 2044434c 696c6163 74617262     ....LCD calibrat
   85b78:	006e6f69 63756f54 68742068 6f642065     ion.Touch the do
   85b88:	74207374 61630a6f 7262696c 20657461     ts to.calibrate 
   85b98:	20656874 65726373 00006e65 696c6143     the screen..Cali
   85ba8:	74617262 206e6f69 656e6f64 0000002e     bration done....
   85bb8:	696c6143 74617262 206e6f69 6c696166     Calibration fail
   85bc8:	00216465 61656c50 74206573 61207972     ed!.Please try a
   85bd8:	6e696167 002e2e2e                       gain....

00085be0 <_global_impure_ptr>:
   85be0:	20000148 0000000a 33323130 37363534     H.. ....01234567
   85bf0:	62613938 66656463 6a696867 6e6d6c6b     89abcdefghijklmn
   85c00:	7271706f 76757473 7a797877 00000000     opqrstuvwxyz....

00085c10 <zeroes.6993>:
   85c10:	30303030 30303030 30303030 30303030     0000000000000000
   85c20:	33323130 37363534 42413938 46454443     0123456789ABCDEF
   85c30:	00000000 33323130 37363534 62613938     ....0123456789ab
   85c40:	66656463 00000000 6c756e28 0000296c     cdef....(null)..

00085c50 <blanks.6992>:
   85c50:	20202020 20202020 20202020 20202020                     

00085c60 <_init>:
   85c60:	b5f8      	push	{r3, r4, r5, r6, r7, lr}
   85c62:	bf00      	nop
   85c64:	bcf8      	pop	{r3, r4, r5, r6, r7}
   85c66:	bc08      	pop	{r3}
   85c68:	469e      	mov	lr, r3
   85c6a:	4770      	bx	lr

00085c6c <__init_array_start>:
   85c6c:	00083589 	.word	0x00083589

00085c70 <__frame_dummy_init_array_entry>:
   85c70:	000800e1                                ....

00085c74 <_fini>:
   85c74:	b5f8      	push	{r3, r4, r5, r6, r7, lr}
   85c76:	bf00      	nop
   85c78:	bcf8      	pop	{r3, r4, r5, r6, r7}
   85c7a:	bc08      	pop	{r3}
   85c7c:	469e      	mov	lr, r3
   85c7e:	4770      	bx	lr

00085c80 <__fini_array_start>:
   85c80:	000800bd 	.word	0x000800bd

Disassembly of section .relocate:

20000000 <SystemInit>:
20000000:	f44f 6380 	mov.w	r3, #1024	; 0x400
20000004:	4a21      	ldr	r2, [pc, #132]	; (2000008c <SystemInit+0x8c>)
20000006:	6013      	str	r3, [r2, #0]
20000008:	f502 7200 	add.w	r2, r2, #512	; 0x200
2000000c:	6013      	str	r3, [r2, #0]
2000000e:	f103 4380 	add.w	r3, r3, #1073741824	; 0x40000000
20000012:	f503 2360 	add.w	r3, r3, #917504	; 0xe0000
20000016:	6a1b      	ldr	r3, [r3, #32]
20000018:	f013 7f80 	tst.w	r3, #16777216	; 0x1000000
2000001c:	d107      	bne.n	2000002e <SystemInit+0x2e>
2000001e:	4a1c      	ldr	r2, [pc, #112]	; (20000090 <SystemInit+0x90>)
20000020:	4b1c      	ldr	r3, [pc, #112]	; (20000094 <SystemInit+0x94>)
20000022:	621a      	str	r2, [r3, #32]
20000024:	461a      	mov	r2, r3
20000026:	6e93      	ldr	r3, [r2, #104]	; 0x68
20000028:	f013 0f01 	tst.w	r3, #1
2000002c:	d0fb      	beq.n	20000026 <SystemInit+0x26>
2000002e:	4a1a      	ldr	r2, [pc, #104]	; (20000098 <SystemInit+0x98>)
20000030:	4b18      	ldr	r3, [pc, #96]	; (20000094 <SystemInit+0x94>)
20000032:	621a      	str	r2, [r3, #32]
20000034:	461a      	mov	r2, r3
20000036:	6e93      	ldr	r3, [r2, #104]	; 0x68
20000038:	f413 3f80 	tst.w	r3, #65536	; 0x10000
2000003c:	d0fb      	beq.n	20000036 <SystemInit+0x36>
2000003e:	4a15      	ldr	r2, [pc, #84]	; (20000094 <SystemInit+0x94>)
20000040:	6b13      	ldr	r3, [r2, #48]	; 0x30
20000042:	f023 0303 	bic.w	r3, r3, #3
20000046:	f043 0301 	orr.w	r3, r3, #1
2000004a:	6313      	str	r3, [r2, #48]	; 0x30
2000004c:	6e93      	ldr	r3, [r2, #104]	; 0x68
2000004e:	f013 0f08 	tst.w	r3, #8
20000052:	d0fb      	beq.n	2000004c <SystemInit+0x4c>
20000054:	4a11      	ldr	r2, [pc, #68]	; (2000009c <SystemInit+0x9c>)
20000056:	4b0f      	ldr	r3, [pc, #60]	; (20000094 <SystemInit+0x94>)
20000058:	629a      	str	r2, [r3, #40]	; 0x28
2000005a:	461a      	mov	r2, r3
2000005c:	6e93      	ldr	r3, [r2, #104]	; 0x68
2000005e:	f013 0f02 	tst.w	r3, #2
20000062:	d0fb      	beq.n	2000005c <SystemInit+0x5c>
20000064:	2211      	movs	r2, #17
20000066:	4b0b      	ldr	r3, [pc, #44]	; (20000094 <SystemInit+0x94>)
20000068:	631a      	str	r2, [r3, #48]	; 0x30
2000006a:	461a      	mov	r2, r3
2000006c:	6e93      	ldr	r3, [r2, #104]	; 0x68
2000006e:	f013 0f08 	tst.w	r3, #8
20000072:	d0fb      	beq.n	2000006c <SystemInit+0x6c>
20000074:	2212      	movs	r2, #18
20000076:	4b07      	ldr	r3, [pc, #28]	; (20000094 <SystemInit+0x94>)
20000078:	631a      	str	r2, [r3, #48]	; 0x30
2000007a:	461a      	mov	r2, r3
2000007c:	6e93      	ldr	r3, [r2, #104]	; 0x68
2000007e:	f013 0f08 	tst.w	r3, #8
20000082:	d0fb      	beq.n	2000007c <SystemInit+0x7c>
20000084:	4a06      	ldr	r2, [pc, #24]	; (200000a0 <SystemInit+0xa0>)
20000086:	4b07      	ldr	r3, [pc, #28]	; (200000a4 <SystemInit+0xa4>)
20000088:	601a      	str	r2, [r3, #0]
2000008a:	4770      	bx	lr
2000008c:	400e0800 	.word	0x400e0800
20000090:	00370809 	.word	0x00370809
20000094:	400e0400 	.word	0x400e0400
20000098:	01370809 	.word	0x01370809
2000009c:	200f3f01 	.word	0x200f3f01
200000a0:	05b8d800 	.word	0x05b8d800
200000a4:	2000011c 	.word	0x2000011c

200000a8 <system_init_flash>:
200000a8:	4b16      	ldr	r3, [pc, #88]	; (20000104 <system_init_flash+0x5c>)
200000aa:	4298      	cmp	r0, r3
200000ac:	d806      	bhi.n	200000bc <system_init_flash+0x14>
200000ae:	2300      	movs	r3, #0
200000b0:	4a15      	ldr	r2, [pc, #84]	; (20000108 <system_init_flash+0x60>)
200000b2:	6013      	str	r3, [r2, #0]
200000b4:	f502 7200 	add.w	r2, r2, #512	; 0x200
200000b8:	6013      	str	r3, [r2, #0]
200000ba:	4770      	bx	lr
200000bc:	4b13      	ldr	r3, [pc, #76]	; (2000010c <system_init_flash+0x64>)
200000be:	4298      	cmp	r0, r3
200000c0:	d807      	bhi.n	200000d2 <system_init_flash+0x2a>
200000c2:	f44f 7380 	mov.w	r3, #256	; 0x100
200000c6:	4a10      	ldr	r2, [pc, #64]	; (20000108 <system_init_flash+0x60>)
200000c8:	6013      	str	r3, [r2, #0]
200000ca:	f502 7200 	add.w	r2, r2, #512	; 0x200
200000ce:	6013      	str	r3, [r2, #0]
200000d0:	4770      	bx	lr
200000d2:	4b0f      	ldr	r3, [pc, #60]	; (20000110 <system_init_flash+0x68>)
200000d4:	4298      	cmp	r0, r3
200000d6:	d807      	bhi.n	200000e8 <system_init_flash+0x40>
200000d8:	f44f 7300 	mov.w	r3, #512	; 0x200
200000dc:	4a0a      	ldr	r2, [pc, #40]	; (20000108 <system_init_flash+0x60>)
200000de:	6013      	str	r3, [r2, #0]
200000e0:	f502 7200 	add.w	r2, r2, #512	; 0x200
200000e4:	6013      	str	r3, [r2, #0]
200000e6:	4770      	bx	lr
200000e8:	4b0a      	ldr	r3, [pc, #40]	; (20000114 <system_init_flash+0x6c>)
200000ea:	4298      	cmp	r0, r3
200000ec:	bf94      	ite	ls
200000ee:	f44f 7340 	movls.w	r3, #768	; 0x300
200000f2:	f44f 6380 	movhi.w	r3, #1024	; 0x400
200000f6:	4a04      	ldr	r2, [pc, #16]	; (20000108 <system_init_flash+0x60>)
200000f8:	6013      	str	r3, [r2, #0]
200000fa:	f502 7200 	add.w	r2, r2, #512	; 0x200
200000fe:	6013      	str	r3, [r2, #0]
20000100:	4770      	bx	lr
20000102:	bf00      	nop
20000104:	016e35ff 	.word	0x016e35ff
20000108:	400e0800 	.word	0x400e0800
2000010c:	026259ff 	.word	0x026259ff
20000110:	044aa1ff 	.word	0x044aa1ff
20000114:	0501bcff 	.word	0x0501bcff

20000118 <calculator_mode>:
20000118:	00000001                                ....

2000011c <SystemCoreClock>:
2000011c:	003d0900                                ..=.

20000120 <gs_calibration_points>:
20000120:	00200018 00000000 002000d8 00000000     .. ....... .....
20000130:	012000d8 00000000 01200018 00000000     .. ....... .....
20000140:	00a00078 00000000                       x.......

20000148 <impure_data>:
20000148:	00000000 20000434 2000049c 20000504     ....4.. ... ... 
	...
2000017c:	00085284 00000000 00000000 00000000     .R..............
	...
200001f0:	00000001 00000000 abcd330e e66d1234     .........3..4.m.
20000200:	0005deec 0000000b 00000000 00000000     ................
	...

20000570 <_impure_ptr>:
20000570:	20000148                                H.. 

20000574 <lc_ctype_charset>:
20000574:	49435341 00000049 00000000 00000000     ASCII...........
	...

20000594 <__mb_cur_max>:
20000594:	00000001                                ....

20000598 <__malloc_av_>:
	...
200005a0:	20000598 20000598 200005a0 200005a0     ... ... ... ... 
200005b0:	200005a8 200005a8 200005b0 200005b0     ... ... ... ... 
200005c0:	200005b8 200005b8 200005c0 200005c0     ... ... ... ... 
200005d0:	200005c8 200005c8 200005d0 200005d0     ... ... ... ... 
200005e0:	200005d8 200005d8 200005e0 200005e0     ... ... ... ... 
200005f0:	200005e8 200005e8 200005f0 200005f0     ... ... ... ... 
20000600:	200005f8 200005f8 20000600 20000600     ... ... ... ... 
20000610:	20000608 20000608 20000610 20000610     ... ... ... ... 
20000620:	20000618 20000618 20000620 20000620     ... ...  ..  .. 
20000630:	20000628 20000628 20000630 20000630     (.. (.. 0.. 0.. 
20000640:	20000638 20000638 20000640 20000640     8.. 8.. @.. @.. 
20000650:	20000648 20000648 20000650 20000650     H.. H.. P.. P.. 
20000660:	20000658 20000658 20000660 20000660     X.. X.. `.. `.. 
20000670:	20000668 20000668 20000670 20000670     h.. h.. p.. p.. 
20000680:	20000678 20000678 20000680 20000680     x.. x.. ... ... 
20000690:	20000688 20000688 20000690 20000690     ... ... ... ... 
200006a0:	20000698 20000698 200006a0 200006a0     ... ... ... ... 
200006b0:	200006a8 200006a8 200006b0 200006b0     ... ... ... ... 
200006c0:	200006b8 200006b8 200006c0 200006c0     ... ... ... ... 
200006d0:	200006c8 200006c8 200006d0 200006d0     ... ... ... ... 
200006e0:	200006d8 200006d8 200006e0 200006e0     ... ... ... ... 
200006f0:	200006e8 200006e8 200006f0 200006f0     ... ... ... ... 
20000700:	200006f8 200006f8 20000700 20000700     ... ... ... ... 
20000710:	20000708 20000708 20000710 20000710     ... ... ... ... 
20000720:	20000718 20000718 20000720 20000720     ... ...  ..  .. 
20000730:	20000728 20000728 20000730 20000730     (.. (.. 0.. 0.. 
20000740:	20000738 20000738 20000740 20000740     8.. 8.. @.. @.. 
20000750:	20000748 20000748 20000750 20000750     H.. H.. P.. P.. 
20000760:	20000758 20000758 20000760 20000760     X.. X.. `.. `.. 
20000770:	20000768 20000768 20000770 20000770     h.. h.. p.. p.. 
20000780:	20000778 20000778 20000780 20000780     x.. x.. ... ... 
20000790:	20000788 20000788 20000790 20000790     ... ... ... ... 
200007a0:	20000798 20000798 200007a0 200007a0     ... ... ... ... 
200007b0:	200007a8 200007a8 200007b0 200007b0     ... ... ... ... 
200007c0:	200007b8 200007b8 200007c0 200007c0     ... ... ... ... 
200007d0:	200007c8 200007c8 200007d0 200007d0     ... ... ... ... 
200007e0:	200007d8 200007d8 200007e0 200007e0     ... ... ... ... 
200007f0:	200007e8 200007e8 200007f0 200007f0     ... ... ... ... 
20000800:	200007f8 200007f8 20000800 20000800     ... ... ... ... 
20000810:	20000808 20000808 20000810 20000810     ... ... ... ... 
20000820:	20000818 20000818 20000820 20000820     ... ...  ..  .. 
20000830:	20000828 20000828 20000830 20000830     (.. (.. 0.. 0.. 
20000840:	20000838 20000838 20000840 20000840     8.. 8.. @.. @.. 
20000850:	20000848 20000848 20000850 20000850     H.. H.. P.. P.. 
20000860:	20000858 20000858 20000860 20000860     X.. X.. `.. `.. 
20000870:	20000868 20000868 20000870 20000870     h.. h.. p.. p.. 
20000880:	20000878 20000878 20000880 20000880     x.. x.. ... ... 
20000890:	20000888 20000888 20000890 20000890     ... ... ... ... 
200008a0:	20000898 20000898 200008a0 200008a0     ... ... ... ... 
200008b0:	200008a8 200008a8 200008b0 200008b0     ... ... ... ... 
200008c0:	200008b8 200008b8 200008c0 200008c0     ... ... ... ... 
200008d0:	200008c8 200008c8 200008d0 200008d0     ... ... ... ... 
200008e0:	200008d8 200008d8 200008e0 200008e0     ... ... ... ... 
200008f0:	200008e8 200008e8 200008f0 200008f0     ... ... ... ... 
20000900:	200008f8 200008f8 20000900 20000900     ... ... ... ... 
20000910:	20000908 20000908 20000910 20000910     ... ... ... ... 
20000920:	20000918 20000918 20000920 20000920     ... ...  ..  .. 
20000930:	20000928 20000928 20000930 20000930     (.. (.. 0.. 0.. 
20000940:	20000938 20000938 20000940 20000940     8.. 8.. @.. @.. 
20000950:	20000948 20000948 20000950 20000950     H.. H.. P.. P.. 
20000960:	20000958 20000958 20000960 20000960     X.. X.. `.. `.. 
20000970:	20000968 20000968 20000970 20000970     h.. h.. p.. p.. 
20000980:	20000978 20000978 20000980 20000980     x.. x.. ... ... 
20000990:	20000988 20000988 20000990 20000990     ... ... ... ... 

200009a0 <__malloc_trim_threshold>:
200009a0:	00020000                                ....

200009a4 <__malloc_sbrk_base>:
200009a4:	ffffffff                                ....

200009a8 <__wctomb>:
200009a8:	00084cfd                                .L..
